	.cpu cortex-m4
	.eabi_attribute 27, 1
	.eabi_attribute 28, 1
	.eabi_attribute 20, 1
	.eabi_attribute 21, 1
	.eabi_attribute 23, 3
	.eabi_attribute 24, 1
	.eabi_attribute 25, 1
	.eabi_attribute 26, 1
	.eabi_attribute 30, 6
	.eabi_attribute 34, 1
	.eabi_attribute 18, 4
	.file	"nrf_drv_clock.c"
	.text
.Ltext0:
	.section	.text.nrf_clock_int_enable,"ax",%progbits
	.align	1
	.syntax unified
	.thumb
	.thumb_func
	.fpu fpv4-sp-d16
	.type	nrf_clock_int_enable, %function
nrf_clock_int_enable:
.LFB147:
	.file 1 "../../../nRF5_SDK_14.2.0/components/drivers_nrf/hal/nrf_clock.h"
	.loc 1 287 0
	@ args = 0, pretend = 0, frame = 8
	@ frame_needed = 0, uses_anonymous_args = 0
	@ link register save eliminated.
	sub	sp, sp, #8
.LCFI0:
	str	r0, [sp, #4]
	.loc 1 288 0
	mov	r2, #1073741824
	ldr	r3, [sp, #4]
	str	r3, [r2, #772]
	.loc 1 289 0
	nop
	add	sp, sp, #8
.LCFI1:
	@ sp needed
	bx	lr
.LFE147:
	.size	nrf_clock_int_enable, .-nrf_clock_int_enable
	.section	.text.nrf_clock_int_disable,"ax",%progbits
	.align	1
	.syntax unified
	.thumb
	.thumb_func
	.fpu fpv4-sp-d16
	.type	nrf_clock_int_disable, %function
nrf_clock_int_disable:
.LFB148:
	.loc 1 292 0
	@ args = 0, pretend = 0, frame = 8
	@ frame_needed = 0, uses_anonymous_args = 0
	@ link register save eliminated.
	sub	sp, sp, #8
.LCFI2:
	str	r0, [sp, #4]
	.loc 1 293 0
	mov	r2, #1073741824
	ldr	r3, [sp, #4]
	str	r3, [r2, #776]
	.loc 1 294 0
	nop
	add	sp, sp, #8
.LCFI3:
	@ sp needed
	bx	lr
.LFE148:
	.size	nrf_clock_int_disable, .-nrf_clock_int_disable
	.section	.text.nrf_clock_task_trigger,"ax",%progbits
	.align	1
	.syntax unified
	.thumb
	.thumb_func
	.fpu fpv4-sp-d16
	.type	nrf_clock_task_trigger, %function
nrf_clock_task_trigger:
.LFB151:
	.loc 1 307 0
	@ args = 0, pretend = 0, frame = 8
	@ frame_needed = 0, uses_anonymous_args = 0
	@ link register save eliminated.
	sub	sp, sp, #8
.LCFI4:
	mov	r3, r0
	strb	r3, [sp, #7]
	.loc 1 308 0
	ldrb	r3, [sp, #7]	@ zero_extendqisi2
	add	r3, r3, #1073741824
	movs	r2, #1
	str	r2, [r3]
	.loc 1 309 0
	nop
	add	sp, sp, #8
.LCFI5:
	@ sp needed
	bx	lr
.LFE151:
	.size	nrf_clock_task_trigger, .-nrf_clock_task_trigger
	.section	.text.nrf_clock_event_clear,"ax",%progbits
	.align	1
	.syntax unified
	.thumb
	.thumb_func
	.fpu fpv4-sp-d16
	.type	nrf_clock_event_clear, %function
nrf_clock_event_clear:
.LFB153:
	.loc 1 317 0
	@ args = 0, pretend = 0, frame = 16
	@ frame_needed = 0, uses_anonymous_args = 0
	@ link register save eliminated.
	sub	sp, sp, #16
.LCFI6:
	mov	r3, r0
	strh	r3, [sp, #6]	@ movhi
	.loc 1 318 0
	ldrh	r3, [sp, #6]
	add	r3, r3, #1073741824
	movs	r2, #0
	str	r2, [r3]
	.loc 1 320 0
	ldrh	r3, [sp, #6]
	add	r3, r3, #1073741824
	ldr	r3, [r3]
	str	r3, [sp, #12]
	.loc 1 321 0
	ldr	r3, [sp, #12]
	.loc 1 323 0
	nop
	add	sp, sp, #16
.LCFI7:
	@ sp needed
	bx	lr
.LFE153:
	.size	nrf_clock_event_clear, .-nrf_clock_event_clear
	.section	.text.nrf_clock_event_check,"ax",%progbits
	.align	1
	.syntax unified
	.thumb
	.thumb_func
	.fpu fpv4-sp-d16
	.type	nrf_clock_event_check, %function
nrf_clock_event_check:
.LFB154:
	.loc 1 326 0
	@ args = 0, pretend = 0, frame = 8
	@ frame_needed = 0, uses_anonymous_args = 0
	@ link register save eliminated.
	sub	sp, sp, #8
.LCFI8:
	mov	r3, r0
	strh	r3, [sp, #6]	@ movhi
	.loc 1 327 0
	ldrh	r3, [sp, #6]
	add	r3, r3, #1073741824
	ldr	r3, [r3]
	cmp	r3, #0
	ite	ne
	movne	r3, #1
	moveq	r3, #0
	uxtb	r3, r3
	.loc 1 328 0
	mov	r0, r3
	add	sp, sp, #8
.LCFI9:
	@ sp needed
	bx	lr
.LFE154:
	.size	nrf_clock_event_check, .-nrf_clock_event_check
	.section	.text.nrf_clock_lf_src_set,"ax",%progbits
	.align	1
	.syntax unified
	.thumb
	.thumb_func
	.fpu fpv4-sp-d16
	.type	nrf_clock_lf_src_set, %function
nrf_clock_lf_src_set:
.LFB155:
	.loc 1 331 0
	@ args = 0, pretend = 0, frame = 8
	@ frame_needed = 0, uses_anonymous_args = 0
	@ link register save eliminated.
	sub	sp, sp, #8
.LCFI10:
	mov	r3, r0
	strb	r3, [sp, #7]
	.loc 1 333 0
	ldrb	r3, [sp, #7]	@ zero_extendqisi2
	.loc 1 332 0
	mov	r2, #1073741824
	.loc 1 333 0
	and	r3, r3, #3
	.loc 1 332 0
	str	r3, [r2, #1304]
	.loc 1 334 0
	nop
	add	sp, sp, #8
.LCFI11:
	@ sp needed
	bx	lr
.LFE155:
	.size	nrf_clock_lf_src_set, .-nrf_clock_lf_src_set
	.section	.text.nrf_clock_lf_is_running,"ax",%progbits
	.align	1
	.syntax unified
	.thumb
	.thumb_func
	.fpu fpv4-sp-d16
	.type	nrf_clock_lf_is_running, %function
nrf_clock_lf_is_running:
.LFB159:
	.loc 1 355 0
	@ args = 0, pretend = 0, frame = 0
	@ frame_needed = 0, uses_anonymous_args = 0
	@ link register save eliminated.
	.loc 1 356 0
	mov	r3, #1073741824
	ldr	r3, [r3, #1048]
	.loc 1 357 0
	lsrs	r3, r3, #16
	and	r3, r3, #1
	cmp	r3, #0
	ite	ne
	movne	r3, #1
	moveq	r3, #0
	uxtb	r3, r3
	.loc 1 358 0
	mov	r0, r3
	bx	lr
.LFE159:
	.size	nrf_clock_lf_is_running, .-nrf_clock_lf_is_running
	.section	.text.nrf_clock_hf_is_running,"ax",%progbits
	.align	1
	.syntax unified
	.thumb
	.thumb_func
	.fpu fpv4-sp-d16
	.type	nrf_clock_hf_is_running, %function
nrf_clock_hf_is_running:
.LFB162:
	.loc 1 374 0
	@ args = 0, pretend = 0, frame = 8
	@ frame_needed = 0, uses_anonymous_args = 0
	@ link register save eliminated.
	sub	sp, sp, #8
.LCFI12:
	mov	r3, r0
	strb	r3, [sp, #7]
	.loc 1 375 0
	mov	r3, #1073741824
	ldr	r3, [r3, #1036]
	and	r2, r3, #65537
	.loc 1 376 0
	ldrb	r3, [sp, #7]	@ zero_extendqisi2
	orr	r3, r3, #65536
	.loc 1 375 0
	cmp	r2, r3
	ite	eq
	moveq	r3, #1
	movne	r3, #0
	uxtb	r3, r3
	.loc 1 377 0
	mov	r0, r3
	add	sp, sp, #8
.LCFI13:
	@ sp needed
	bx	lr
.LFE162:
	.size	nrf_clock_hf_is_running, .-nrf_clock_hf_is_running
	.section	.text.nrf_drv_common_irq_enable_check,"ax",%progbits
	.align	1
	.syntax unified
	.thumb
	.thumb_func
	.fpu fpv4-sp-d16
	.type	nrf_drv_common_irq_enable_check, %function
nrf_drv_common_irq_enable_check:
.LFB165:
	.file 2 "../../../nRF5_SDK_14.2.0/components/drivers_nrf/common/nrf_drv_common.h"
	.loc 2 296 0
	@ args = 0, pretend = 0, frame = 8
	@ frame_needed = 0, uses_anonymous_args = 0
	@ link register save eliminated.
	sub	sp, sp, #8
.LCFI14:
	mov	r3, r0
	strb	r3, [sp, #7]
	.loc 2 297 0
	ldr	r2, .L14
	ldrsb	r3, [sp, #7]
	lsrs	r3, r3, #5
	ldr	r2, [r2, r3, lsl #2]
	.loc 2 298 0
	ldrb	r3, [sp, #7]	@ zero_extendqisi2
	and	r3, r3, #31
	movs	r1, #1
	lsl	r3, r1, r3
	.loc 2 297 0
	ands	r3, r3, r2
	cmp	r3, #0
	ite	ne
	movne	r3, #1
	moveq	r3, #0
	uxtb	r3, r3
	.loc 2 299 0
	mov	r0, r3
	add	sp, sp, #8
.LCFI15:
	@ sp needed
	bx	lr
.L15:
	.align	2
.L14:
	.word	-536813312
.LFE165:
	.size	nrf_drv_common_irq_enable_check, .-nrf_drv_common_irq_enable_check
	.section	.text.nrf_drv_common_power_clock_irq_init,"ax",%progbits
	.align	1
	.syntax unified
	.thumb
	.thumb_func
	.fpu fpv4-sp-d16
	.type	nrf_drv_common_power_clock_irq_init, %function
nrf_drv_common_power_clock_irq_init:
.LFB170:
	.loc 2 324 0
	@ args = 0, pretend = 0, frame = 0
	@ frame_needed = 0, uses_anonymous_args = 0
	push	{r3, lr}
.LCFI16:
	.loc 2 325 0
	movs	r0, #0
	bl	nrf_drv_common_irq_enable_check
	mov	r3, r0
	eor	r3, r3, #1
	uxtb	r3, r3
	cmp	r3, #0
	beq	.L18
	.loc 2 327 0
	movs	r1, #7
	movs	r0, #0
	bl	nrf_drv_common_irq_enable
.L18:
	.loc 2 341 0
	nop
	pop	{r3, pc}
.LFE170:
	.size	nrf_drv_common_power_clock_irq_init, .-nrf_drv_common_power_clock_irq_init
	.section	.bss.m_clock_cb,"aw",%nobits
	.align	2
	.type	m_clock_cb, %object
	.size	m_clock_cb, 20
m_clock_cb:
	.space	20
	.section	.text.lfclk_start,"ax",%progbits
	.align	1
	.syntax unified
	.thumb
	.thumb_func
	.fpu fpv4-sp-d16
	.type	lfclk_start, %function
lfclk_start:
.LFB174:
	.file 3 "C:\\Users\\paulr\\OneDrive\\Documents\\DARPA\\darpasubt\\darpasubt\\firmware\\dwm1001_dev_source_code\\nRF5_SDK_14.2.0\\components\\drivers_nrf\\clock\\nrf_drv_clock.c"
	.loc 3 114 0
	@ args = 0, pretend = 0, frame = 0
	@ frame_needed = 0, uses_anonymous_args = 0
	push	{r3, lr}
.LCFI17:
	.loc 3 115 0
	mov	r0, #260
	bl	nrf_clock_event_clear
	.loc 3 116 0
	movs	r0, #2
	bl	nrf_clock_int_enable
	.loc 3 117 0
	movs	r0, #8
	bl	nrf_clock_task_trigger
	.loc 3 118 0
	nop
	pop	{r3, pc}
.LFE174:
	.size	lfclk_start, .-lfclk_start
	.section	.text.lfclk_stop,"ax",%progbits
	.align	1
	.syntax unified
	.thumb
	.thumb_func
	.fpu fpv4-sp-d16
	.type	lfclk_stop, %function
lfclk_stop:
.LFB175:
	.loc 3 123 0
	@ args = 0, pretend = 0, frame = 0
	@ frame_needed = 0, uses_anonymous_args = 0
	push	{r3, lr}
.LCFI18:
	.loc 3 135 0
	movs	r0, #12
	bl	nrf_clock_task_trigger
	.loc 3 136 0
	nop
.L21:
	.loc 3 136 0 is_stmt 0 discriminator 1
	bl	nrf_clock_lf_is_running
	mov	r3, r0
	cmp	r3, #0
	bne	.L21
	.loc 3 138 0 is_stmt 1
	ldr	r3, .L22
	movs	r2, #0
	strb	r2, [r3, #2]
	.loc 3 139 0
	nop
	pop	{r3, pc}
.L23:
	.align	2
.L22:
	.word	m_clock_cb
.LFE175:
	.size	lfclk_stop, .-lfclk_stop
	.section	.text.hfclk_start,"ax",%progbits
	.align	1
	.syntax unified
	.thumb
	.thumb_func
	.fpu fpv4-sp-d16
	.type	hfclk_start, %function
hfclk_start:
.LFB176:
	.loc 3 142 0
	@ args = 0, pretend = 0, frame = 0
	@ frame_needed = 0, uses_anonymous_args = 0
	push	{r3, lr}
.LCFI19:
	.loc 3 151 0
	mov	r0, #256
	bl	nrf_clock_event_clear
	.loc 3 152 0
	movs	r0, #1
	bl	nrf_clock_int_enable
	.loc 3 153 0
	movs	r0, #0
	bl	nrf_clock_task_trigger
	.loc 3 154 0
	nop
	pop	{r3, pc}
.LFE176:
	.size	hfclk_start, .-hfclk_start
	.section	.text.hfclk_stop,"ax",%progbits
	.align	1
	.syntax unified
	.thumb
	.thumb_func
	.fpu fpv4-sp-d16
	.type	hfclk_stop, %function
hfclk_stop:
.LFB177:
	.loc 3 157 0
	@ args = 0, pretend = 0, frame = 0
	@ frame_needed = 0, uses_anonymous_args = 0
	push	{r3, lr}
.LCFI20:
	.loc 3 166 0
	movs	r0, #4
	bl	nrf_clock_task_trigger
	.loc 3 167 0
	nop
.L26:
	.loc 3 167 0 is_stmt 0 discriminator 1
	movs	r0, #1
	bl	nrf_clock_hf_is_running
	mov	r3, r0
	cmp	r3, #0
	bne	.L26
	.loc 3 169 0 is_stmt 1
	ldr	r3, .L27
	movs	r2, #0
	strb	r2, [r3, #1]
	.loc 3 170 0
	nop
	pop	{r3, pc}
.L28:
	.align	2
.L27:
	.word	m_clock_cb
.LFE177:
	.size	hfclk_stop, .-hfclk_stop
	.section	.text.nrf_drv_clock_init_check,"ax",%progbits
	.align	1
	.global	nrf_drv_clock_init_check
	.syntax unified
	.thumb
	.thumb_func
	.fpu fpv4-sp-d16
	.type	nrf_drv_clock_init_check, %function
nrf_drv_clock_init_check:
.LFB178:
	.loc 3 173 0
	@ args = 0, pretend = 0, frame = 0
	@ frame_needed = 0, uses_anonymous_args = 0
	@ link register save eliminated.
	.loc 3 174 0
	ldr	r3, .L31
	ldrb	r3, [r3]	@ zero_extendqisi2
	.loc 3 175 0
	mov	r0, r3
	bx	lr
.L32:
	.align	2
.L31:
	.word	m_clock_cb
.LFE178:
	.size	nrf_drv_clock_init_check, .-nrf_drv_clock_init_check
	.section	.text.nrf_drv_clock_init,"ax",%progbits
	.align	1
	.global	nrf_drv_clock_init
	.syntax unified
	.thumb
	.thumb_func
	.fpu fpv4-sp-d16
	.type	nrf_drv_clock_init, %function
nrf_drv_clock_init:
.LFB179:
	.loc 3 178 0
	@ args = 0, pretend = 0, frame = 8
	@ frame_needed = 0, uses_anonymous_args = 0
	push	{lr}
.LCFI21:
	sub	sp, sp, #12
.LCFI22:
	.loc 3 179 0
	movs	r3, #0
	str	r3, [sp, #4]
	.loc 3 180 0
	ldr	r3, .L38
	ldrb	r3, [r3]	@ zero_extendqisi2
	cmp	r3, #0
	beq	.L34
	.loc 3 182 0
	movs	r3, #133
	str	r3, [sp, #4]
	b	.L37
.L34:
	.loc 3 186 0
	ldr	r3, .L38
	movs	r2, #0
	str	r2, [r3, #8]
	.loc 3 187 0
	ldr	r3, .L38
	movs	r2, #0
	str	r2, [r3, #4]
	.loc 3 188 0
	ldr	r3, .L38
	movs	r2, #0
	str	r2, [r3, #16]
	.loc 3 189 0
	ldr	r3, .L38
	movs	r2, #0
	str	r2, [r3, #12]
	.loc 3 190 0
	bl	nrf_drv_common_power_clock_irq_init
	.loc 3 195 0
	movs	r0, #1
	bl	nrf_clock_lf_src_set
	.loc 3 202 0
	ldr	r3, .L38
	movs	r2, #1
	strb	r2, [r3]
.L37:
	.loc 3 207 0
	ldr	r3, [sp, #4]
	.loc 3 208 0
	mov	r0, r3
	add	sp, sp, #12
.LCFI23:
	@ sp needed
	ldr	pc, [sp], #4
.L39:
	.align	2
.L38:
	.word	m_clock_cb
.LFE179:
	.size	nrf_drv_clock_init, .-nrf_drv_clock_init
	.section	.text.nrf_drv_clock_uninit,"ax",%progbits
	.align	1
	.global	nrf_drv_clock_uninit
	.syntax unified
	.thumb
	.thumb_func
	.fpu fpv4-sp-d16
	.type	nrf_drv_clock_uninit, %function
nrf_drv_clock_uninit:
.LFB180:
	.loc 3 211 0
	@ args = 0, pretend = 0, frame = 0
	@ frame_needed = 0, uses_anonymous_args = 0
	push	{r3, lr}
.LCFI24:
	.loc 3 213 0
	bl	nrf_drv_common_clock_irq_disable
	.loc 3 214 0
	mov	r0, #-1
	bl	nrf_clock_int_disable
	.loc 3 216 0
	bl	lfclk_stop
	.loc 3 217 0
	bl	hfclk_stop
	.loc 3 218 0
	ldr	r3, .L41
	movs	r2, #0
	strb	r2, [r3]
	.loc 3 220 0
	nop
	pop	{r3, pc}
.L42:
	.align	2
.L41:
	.word	m_clock_cb
.LFE180:
	.size	nrf_drv_clock_uninit, .-nrf_drv_clock_uninit
	.section	.text.item_enqueue,"ax",%progbits
	.align	1
	.syntax unified
	.thumb
	.thumb_func
	.fpu fpv4-sp-d16
	.type	item_enqueue, %function
item_enqueue:
.LFB181:
	.loc 3 224 0
	@ args = 0, pretend = 0, frame = 16
	@ frame_needed = 0, uses_anonymous_args = 0
	@ link register save eliminated.
	sub	sp, sp, #16
.LCFI25:
	str	r0, [sp, #4]
	str	r1, [sp]
	.loc 3 225 0
	ldr	r3, [sp, #4]
	ldr	r3, [r3]
	str	r3, [sp, #12]
	.loc 3 226 0
	b	.L44
.L47:
	.loc 3 228 0
	ldr	r2, [sp, #12]
	ldr	r3, [sp]
	cmp	r2, r3
	beq	.L48
	.loc 3 232 0
	ldr	r3, [sp, #12]
	ldr	r3, [r3]
	str	r3, [sp, #12]
.L44:
	.loc 3 226 0
	ldr	r3, [sp, #12]
	cmp	r3, #0
	bne	.L47
	.loc 3 235 0
	ldr	r3, [sp, #4]
	ldr	r2, [r3]
	ldr	r3, [sp]
	str	r2, [r3]
	.loc 3 236 0
	ldr	r3, [sp, #4]
	ldr	r2, [sp]
	str	r2, [r3]
	b	.L43
.L48:
	.loc 3 230 0
	nop
.L43:
	.loc 3 237 0
	add	sp, sp, #16
.LCFI26:
	@ sp needed
	bx	lr
.LFE181:
	.size	item_enqueue, .-item_enqueue
	.section	.text.item_dequeue,"ax",%progbits
	.align	1
	.syntax unified
	.thumb
	.thumb_func
	.fpu fpv4-sp-d16
	.type	item_dequeue, %function
item_dequeue:
.LFB182:
	.loc 3 240 0
	@ args = 0, pretend = 0, frame = 16
	@ frame_needed = 0, uses_anonymous_args = 0
	@ link register save eliminated.
	sub	sp, sp, #16
.LCFI27:
	str	r0, [sp, #4]
	.loc 3 241 0
	ldr	r3, [sp, #4]
	ldr	r3, [r3]
	str	r3, [sp, #12]
	.loc 3 242 0
	ldr	r3, [sp, #12]
	cmp	r3, #0
	beq	.L50
	.loc 3 244 0
	ldr	r3, [sp, #12]
	ldr	r2, [r3]
	ldr	r3, [sp, #4]
	str	r2, [r3]
.L50:
	.loc 3 246 0
	ldr	r3, [sp, #12]
	.loc 3 247 0
	mov	r0, r3
	add	sp, sp, #16
.LCFI28:
	@ sp needed
	bx	lr
.LFE182:
	.size	item_dequeue, .-item_dequeue
	.section	.text.nrf_drv_clock_lfclk_request,"ax",%progbits
	.align	1
	.global	nrf_drv_clock_lfclk_request
	.syntax unified
	.thumb
	.thumb_func
	.fpu fpv4-sp-d16
	.type	nrf_drv_clock_lfclk_request, %function
nrf_drv_clock_lfclk_request:
.LFB183:
	.loc 3 250 0
	@ args = 0, pretend = 0, frame = 8
	@ frame_needed = 0, uses_anonymous_args = 0
	push	{lr}
.LCFI29:
	sub	sp, sp, #12
.LCFI30:
	str	r0, [sp, #4]
	.loc 3 253 0
	ldr	r3, .L59
	ldrb	r3, [r3, #2]
	uxtb	r3, r3
	cmp	r3, #0
	beq	.L53
	.loc 3 255 0
	ldr	r3, [sp, #4]
	cmp	r3, #0
	beq	.L54
	.loc 3 257 0
	ldr	r3, [sp, #4]
	ldr	r3, [r3, #4]
	movs	r0, #1
	blx	r3
.LVL0:
.L54:
	.loc 3 259 0
	movs	r0, #0
	bl	app_util_critical_region_enter
	.loc 3 260 0
	ldr	r3, .L59
	ldr	r3, [r3, #12]
	adds	r3, r3, #1
	ldr	r2, .L59
	str	r3, [r2, #12]
	.loc 3 261 0
	movs	r0, #0
	bl	app_util_critical_region_exit
	.loc 3 280 0
	b	.L58
.L53:
	.loc 3 265 0
	movs	r0, #0
	bl	app_util_critical_region_enter
	.loc 3 266 0
	ldr	r3, [sp, #4]
	cmp	r3, #0
	beq	.L56
	.loc 3 268 0
	ldr	r1, [sp, #4]
	ldr	r0, .L59+4
	bl	item_enqueue
.L56:
	.loc 3 271 0
	ldr	r3, .L59
	ldr	r3, [r3, #12]
	cmp	r3, #0
	bne	.L57
	.loc 3 273 0
	bl	lfclk_start
.L57:
	.loc 3 275 0
	ldr	r3, .L59
	ldr	r3, [r3, #12]
	adds	r3, r3, #1
	ldr	r2, .L59
	str	r3, [r2, #12]
	.loc 3 276 0
	movs	r0, #0
	bl	app_util_critical_region_exit
.L58:
	.loc 3 280 0
	nop
	add	sp, sp, #12
.LCFI31:
	@ sp needed
	ldr	pc, [sp], #4
.L60:
	.align	2
.L59:
	.word	m_clock_cb
	.word	m_clock_cb+16
.LFE183:
	.size	nrf_drv_clock_lfclk_request, .-nrf_drv_clock_lfclk_request
	.section	.text.nrf_drv_clock_lfclk_release,"ax",%progbits
	.align	1
	.global	nrf_drv_clock_lfclk_release
	.syntax unified
	.thumb
	.thumb_func
	.fpu fpv4-sp-d16
	.type	nrf_drv_clock_lfclk_release, %function
nrf_drv_clock_lfclk_release:
.LFB184:
	.loc 3 283 0
	@ args = 0, pretend = 0, frame = 0
	@ frame_needed = 0, uses_anonymous_args = 0
	push	{r3, lr}
.LCFI32:
	.loc 3 287 0
	movs	r0, #0
	bl	app_util_critical_region_enter
	.loc 3 288 0
	ldr	r3, .L63
	ldr	r3, [r3, #12]
	subs	r3, r3, #1
	ldr	r2, .L63
	str	r3, [r2, #12]
	.loc 3 289 0
	ldr	r3, .L63
	ldr	r3, [r3, #12]
	cmp	r3, #0
	bne	.L62
	.loc 3 291 0
	bl	lfclk_stop
.L62:
	.loc 3 293 0
	movs	r0, #0
	bl	app_util_critical_region_exit
	.loc 3 294 0
	nop
	pop	{r3, pc}
.L64:
	.align	2
.L63:
	.word	m_clock_cb
.LFE184:
	.size	nrf_drv_clock_lfclk_release, .-nrf_drv_clock_lfclk_release
	.section	.text.nrf_drv_clock_lfclk_is_running,"ax",%progbits
	.align	1
	.global	nrf_drv_clock_lfclk_is_running
	.syntax unified
	.thumb
	.thumb_func
	.fpu fpv4-sp-d16
	.type	nrf_drv_clock_lfclk_is_running, %function
nrf_drv_clock_lfclk_is_running:
.LFB185:
	.loc 3 297 0
	@ args = 0, pretend = 0, frame = 0
	@ frame_needed = 0, uses_anonymous_args = 0
	push	{r3, lr}
.LCFI33:
	.loc 3 307 0
	bl	nrf_clock_lf_is_running
	mov	r3, r0
	.loc 3 308 0
	mov	r0, r3
	pop	{r3, pc}
.LFE185:
	.size	nrf_drv_clock_lfclk_is_running, .-nrf_drv_clock_lfclk_is_running
	.section	.text.nrf_drv_clock_hfclk_request,"ax",%progbits
	.align	1
	.global	nrf_drv_clock_hfclk_request
	.syntax unified
	.thumb
	.thumb_func
	.fpu fpv4-sp-d16
	.type	nrf_drv_clock_hfclk_request, %function
nrf_drv_clock_hfclk_request:
.LFB186:
	.loc 3 311 0
	@ args = 0, pretend = 0, frame = 8
	@ frame_needed = 0, uses_anonymous_args = 0
	push	{lr}
.LCFI34:
	sub	sp, sp, #12
.LCFI35:
	str	r0, [sp, #4]
	.loc 3 314 0
	ldr	r3, .L74
	ldrb	r3, [r3, #1]
	uxtb	r3, r3
	cmp	r3, #0
	beq	.L68
	.loc 3 316 0
	ldr	r3, [sp, #4]
	cmp	r3, #0
	beq	.L69
	.loc 3 318 0
	ldr	r3, [sp, #4]
	ldr	r3, [r3, #4]
	movs	r0, #0
	blx	r3
.LVL1:
.L69:
	.loc 3 320 0
	movs	r0, #0
	bl	app_util_critical_region_enter
	.loc 3 321 0
	ldr	r3, .L74
	ldr	r3, [r3, #4]
	adds	r3, r3, #1
	ldr	r2, .L74
	str	r3, [r2, #4]
	.loc 3 322 0
	movs	r0, #0
	bl	app_util_critical_region_exit
	.loc 3 341 0
	b	.L73
.L68:
	.loc 3 326 0
	movs	r0, #0
	bl	app_util_critical_region_enter
	.loc 3 327 0
	ldr	r3, [sp, #4]
	cmp	r3, #0
	beq	.L71
	.loc 3 329 0
	ldr	r1, [sp, #4]
	ldr	r0, .L74+4
	bl	item_enqueue
.L71:
	.loc 3 332 0
	ldr	r3, .L74
	ldr	r3, [r3, #4]
	cmp	r3, #0
	bne	.L72
	.loc 3 334 0
	bl	hfclk_start
.L72:
	.loc 3 336 0
	ldr	r3, .L74
	ldr	r3, [r3, #4]
	adds	r3, r3, #1
	ldr	r2, .L74
	str	r3, [r2, #4]
	.loc 3 337 0
	movs	r0, #0
	bl	app_util_critical_region_exit
.L73:
	.loc 3 341 0
	nop
	add	sp, sp, #12
.LCFI36:
	@ sp needed
	ldr	pc, [sp], #4
.L75:
	.align	2
.L74:
	.word	m_clock_cb
	.word	m_clock_cb+8
.LFE186:
	.size	nrf_drv_clock_hfclk_request, .-nrf_drv_clock_hfclk_request
	.section	.text.nrf_drv_clock_hfclk_release,"ax",%progbits
	.align	1
	.global	nrf_drv_clock_hfclk_release
	.syntax unified
	.thumb
	.thumb_func
	.fpu fpv4-sp-d16
	.type	nrf_drv_clock_hfclk_release, %function
nrf_drv_clock_hfclk_release:
.LFB187:
	.loc 3 344 0
	@ args = 0, pretend = 0, frame = 0
	@ frame_needed = 0, uses_anonymous_args = 0
	push	{r3, lr}
.LCFI37:
	.loc 3 348 0
	movs	r0, #0
	bl	app_util_critical_region_enter
	.loc 3 349 0
	ldr	r3, .L78
	ldr	r3, [r3, #4]
	subs	r3, r3, #1
	ldr	r2, .L78
	str	r3, [r2, #4]
	.loc 3 350 0
	ldr	r3, .L78
	ldr	r3, [r3, #4]
	cmp	r3, #0
	bne	.L77
	.loc 3 352 0
	bl	hfclk_stop
.L77:
	.loc 3 354 0
	movs	r0, #0
	bl	app_util_critical_region_exit
	.loc 3 355 0
	nop
	pop	{r3, pc}
.L79:
	.align	2
.L78:
	.word	m_clock_cb
.LFE187:
	.size	nrf_drv_clock_hfclk_release, .-nrf_drv_clock_hfclk_release
	.section	.text.nrf_drv_clock_hfclk_is_running,"ax",%progbits
	.align	1
	.global	nrf_drv_clock_hfclk_is_running
	.syntax unified
	.thumb
	.thumb_func
	.fpu fpv4-sp-d16
	.type	nrf_drv_clock_hfclk_is_running, %function
nrf_drv_clock_hfclk_is_running:
.LFB188:
	.loc 3 358 0
	@ args = 0, pretend = 0, frame = 0
	@ frame_needed = 0, uses_anonymous_args = 0
	push	{r3, lr}
.LCFI38:
	.loc 3 370 0
	movs	r0, #1
	bl	nrf_clock_hf_is_running
	mov	r3, r0
	.loc 3 371 0
	mov	r0, r3
	pop	{r3, pc}
.LFE188:
	.size	nrf_drv_clock_hfclk_is_running, .-nrf_drv_clock_hfclk_is_running
	.section	.text.nrf_drv_clock_calibration_start,"ax",%progbits
	.align	1
	.global	nrf_drv_clock_calibration_start
	.syntax unified
	.thumb
	.thumb_func
	.fpu fpv4-sp-d16
	.type	nrf_drv_clock_calibration_start, %function
nrf_drv_clock_calibration_start:
.LFB189:
	.loc 3 396 0
	@ args = 0, pretend = 0, frame = 16
	@ frame_needed = 0, uses_anonymous_args = 0
	@ link register save eliminated.
	sub	sp, sp, #16
.LCFI39:
	mov	r3, r0
	str	r1, [sp]
	strb	r3, [sp, #7]
	.loc 3 397 0
	movs	r3, #0
	str	r3, [sp, #12]
	.loc 3 429 0
	movs	r3, #15
	str	r3, [sp, #12]
	.loc 3 431 0
	ldr	r3, [sp, #12]
	.loc 3 433 0
	mov	r0, r3
	add	sp, sp, #16
.LCFI40:
	@ sp needed
	bx	lr
.LFE189:
	.size	nrf_drv_clock_calibration_start, .-nrf_drv_clock_calibration_start
	.section	.text.nrf_drv_clock_calibration_abort,"ax",%progbits
	.align	1
	.global	nrf_drv_clock_calibration_abort
	.syntax unified
	.thumb
	.thumb_func
	.fpu fpv4-sp-d16
	.type	nrf_drv_clock_calibration_abort, %function
nrf_drv_clock_calibration_abort:
.LFB190:
	.loc 3 436 0
	@ args = 0, pretend = 0, frame = 8
	@ frame_needed = 0, uses_anonymous_args = 0
	@ link register save eliminated.
	sub	sp, sp, #8
.LCFI41:
	.loc 3 437 0
	movs	r3, #0
	str	r3, [sp, #4]
	.loc 3 464 0
	movs	r3, #15
	str	r3, [sp, #4]
	.loc 3 466 0
	ldr	r3, [sp, #4]
	.loc 3 468 0
	mov	r0, r3
	add	sp, sp, #8
.LCFI42:
	@ sp needed
	bx	lr
.LFE190:
	.size	nrf_drv_clock_calibration_abort, .-nrf_drv_clock_calibration_abort
	.section	.text.nrf_drv_clock_is_calibrating,"ax",%progbits
	.align	1
	.global	nrf_drv_clock_is_calibrating
	.syntax unified
	.thumb
	.thumb_func
	.fpu fpv4-sp-d16
	.type	nrf_drv_clock_is_calibrating, %function
nrf_drv_clock_is_calibrating:
.LFB191:
	.loc 3 471 0
	@ args = 0, pretend = 0, frame = 16
	@ frame_needed = 0, uses_anonymous_args = 0
	@ link register save eliminated.
	sub	sp, sp, #16
.LCFI43:
	str	r0, [sp, #4]
	.loc 3 472 0
	movs	r3, #0
	str	r3, [sp, #12]
	.loc 3 479 0
	movs	r3, #15
	str	r3, [sp, #12]
	.loc 3 481 0
	ldr	r3, [sp, #12]
	.loc 3 483 0
	mov	r0, r3
	add	sp, sp, #16
.LCFI44:
	@ sp needed
	bx	lr
.LFE191:
	.size	nrf_drv_clock_is_calibrating, .-nrf_drv_clock_is_calibrating
	.section	.text.clock_clk_started_notify,"ax",%progbits
	.align	1
	.syntax unified
	.thumb
	.thumb_func
	.fpu fpv4-sp-d16
	.type	clock_clk_started_notify, %function
clock_clk_started_notify:
.LFB192:
	.loc 3 486 0
	@ args = 0, pretend = 0, frame = 16
	@ frame_needed = 0, uses_anonymous_args = 0
	push	{lr}
.LCFI45:
	sub	sp, sp, #20
.LCFI46:
	mov	r3, r0
	strb	r3, [sp, #7]
	.loc 3 488 0
	ldrb	r3, [sp, #7]	@ zero_extendqisi2
	cmp	r3, #0
	bne	.L89
	.loc 3 490 0
	ldr	r3, .L96
	str	r3, [sp, #12]
	b	.L93
.L89:
	.loc 3 494 0
	ldr	r3, .L96+4
	str	r3, [sp, #12]
.L93:
.LBB2:
	.loc 3 499 0
	ldr	r0, [sp, #12]
	bl	item_dequeue
	str	r0, [sp, #8]
	.loc 3 500 0
	ldr	r3, [sp, #8]
	cmp	r3, #0
	beq	.L95
	.loc 3 505 0
	ldr	r3, [sp, #8]
	ldr	r3, [r3, #4]
	ldrb	r2, [sp, #7]	@ zero_extendqisi2
	mov	r0, r2
	blx	r3
.LVL2:
.LBE2:
	.loc 3 498 0
	b	.L93
.L95:
.LBB3:
	.loc 3 502 0
	nop
.LBE3:
	.loc 3 507 0
	nop
	add	sp, sp, #20
.LCFI47:
	@ sp needed
	ldr	pc, [sp], #4
.L97:
	.align	2
.L96:
	.word	m_clock_cb+8
	.word	m_clock_cb+16
.LFE192:
	.size	clock_clk_started_notify, .-clock_clk_started_notify
	.section	.text.POWER_CLOCK_IRQHandler,"ax",%progbits
	.align	1
	.global	POWER_CLOCK_IRQHandler
	.syntax unified
	.thumb
	.thumb_func
	.fpu fpv4-sp-d16
	.type	POWER_CLOCK_IRQHandler, %function
POWER_CLOCK_IRQHandler:
.LFB193:
	.loc 3 514 0
	@ args = 0, pretend = 0, frame = 0
	@ frame_needed = 0, uses_anonymous_args = 0
	push	{r3, lr}
.LCFI48:
	.loc 3 515 0
	mov	r0, #256
	bl	nrf_clock_event_check
	mov	r3, r0
	cmp	r3, #0
	beq	.L99
	.loc 3 517 0
	mov	r0, #256
	bl	nrf_clock_event_clear
	.loc 3 519 0
	movs	r0, #1
	bl	nrf_clock_int_disable
	.loc 3 520 0
	ldr	r3, .L102
	movs	r2, #1
	strb	r2, [r3, #1]
	.loc 3 521 0
	movs	r0, #0
	bl	clock_clk_started_notify
.L99:
	.loc 3 523 0
	mov	r0, #260
	bl	nrf_clock_event_check
	mov	r3, r0
	cmp	r3, #0
	beq	.L101
	.loc 3 525 0
	mov	r0, #260
	bl	nrf_clock_event_clear
	.loc 3 527 0
	movs	r0, #2
	bl	nrf_clock_int_disable
	.loc 3 528 0
	ldr	r3, .L102
	movs	r2, #1
	strb	r2, [r3, #2]
	.loc 3 529 0
	movs	r0, #1
	bl	clock_clk_started_notify
.L101:
	.loc 3 555 0
	nop
	pop	{r3, pc}
.L103:
	.align	2
.L102:
	.word	m_clock_cb
.LFE193:
	.size	POWER_CLOCK_IRQHandler, .-POWER_CLOCK_IRQHandler
	.section	.debug_frame,"",%progbits
.Lframe0:
	.4byte	.LECIE0-.LSCIE0
.LSCIE0:
	.4byte	0xffffffff
	.byte	0x3
	.ascii	"\000"
	.uleb128 0x1
	.sleb128 -4
	.uleb128 0xe
	.byte	0xc
	.uleb128 0xd
	.uleb128 0
	.align	2
.LECIE0:
.LSFDE0:
	.4byte	.LEFDE0-.LASFDE0
.LASFDE0:
	.4byte	.Lframe0
	.4byte	.LFB147
	.4byte	.LFE147-.LFB147
	.byte	0x4
	.4byte	.LCFI0-.LFB147
	.byte	0xe
	.uleb128 0x8
	.byte	0x4
	.4byte	.LCFI1-.LCFI0
	.byte	0xe
	.uleb128 0
	.align	2
.LEFDE0:
.LSFDE2:
	.4byte	.LEFDE2-.LASFDE2
.LASFDE2:
	.4byte	.Lframe0
	.4byte	.LFB148
	.4byte	.LFE148-.LFB148
	.byte	0x4
	.4byte	.LCFI2-.LFB148
	.byte	0xe
	.uleb128 0x8
	.byte	0x4
	.4byte	.LCFI3-.LCFI2
	.byte	0xe
	.uleb128 0
	.align	2
.LEFDE2:
.LSFDE4:
	.4byte	.LEFDE4-.LASFDE4
.LASFDE4:
	.4byte	.Lframe0
	.4byte	.LFB151
	.4byte	.LFE151-.LFB151
	.byte	0x4
	.4byte	.LCFI4-.LFB151
	.byte	0xe
	.uleb128 0x8
	.byte	0x4
	.4byte	.LCFI5-.LCFI4
	.byte	0xe
	.uleb128 0
	.align	2
.LEFDE4:
.LSFDE6:
	.4byte	.LEFDE6-.LASFDE6
.LASFDE6:
	.4byte	.Lframe0
	.4byte	.LFB153
	.4byte	.LFE153-.LFB153
	.byte	0x4
	.4byte	.LCFI6-.LFB153
	.byte	0xe
	.uleb128 0x10
	.byte	0x4
	.4byte	.LCFI7-.LCFI6
	.byte	0xe
	.uleb128 0
	.align	2
.LEFDE6:
.LSFDE8:
	.4byte	.LEFDE8-.LASFDE8
.LASFDE8:
	.4byte	.Lframe0
	.4byte	.LFB154
	.4byte	.LFE154-.LFB154
	.byte	0x4
	.4byte	.LCFI8-.LFB154
	.byte	0xe
	.uleb128 0x8
	.byte	0x4
	.4byte	.LCFI9-.LCFI8
	.byte	0xe
	.uleb128 0
	.align	2
.LEFDE8:
.LSFDE10:
	.4byte	.LEFDE10-.LASFDE10
.LASFDE10:
	.4byte	.Lframe0
	.4byte	.LFB155
	.4byte	.LFE155-.LFB155
	.byte	0x4
	.4byte	.LCFI10-.LFB155
	.byte	0xe
	.uleb128 0x8
	.byte	0x4
	.4byte	.LCFI11-.LCFI10
	.byte	0xe
	.uleb128 0
	.align	2
.LEFDE10:
.LSFDE12:
	.4byte	.LEFDE12-.LASFDE12
.LASFDE12:
	.4byte	.Lframe0
	.4byte	.LFB159
	.4byte	.LFE159-.LFB159
	.align	2
.LEFDE12:
.LSFDE14:
	.4byte	.LEFDE14-.LASFDE14
.LASFDE14:
	.4byte	.Lframe0
	.4byte	.LFB162
	.4byte	.LFE162-.LFB162
	.byte	0x4
	.4byte	.LCFI12-.LFB162
	.byte	0xe
	.uleb128 0x8
	.byte	0x4
	.4byte	.LCFI13-.LCFI12
	.byte	0xe
	.uleb128 0
	.align	2
.LEFDE14:
.LSFDE16:
	.4byte	.LEFDE16-.LASFDE16
.LASFDE16:
	.4byte	.Lframe0
	.4byte	.LFB165
	.4byte	.LFE165-.LFB165
	.byte	0x4
	.4byte	.LCFI14-.LFB165
	.byte	0xe
	.uleb128 0x8
	.byte	0x4
	.4byte	.LCFI15-.LCFI14
	.byte	0xe
	.uleb128 0
	.align	2
.LEFDE16:
.LSFDE18:
	.4byte	.LEFDE18-.LASFDE18
.LASFDE18:
	.4byte	.Lframe0
	.4byte	.LFB170
	.4byte	.LFE170-.LFB170
	.byte	0x4
	.4byte	.LCFI16-.LFB170
	.byte	0xe
	.uleb128 0x8
	.byte	0x83
	.uleb128 0x2
	.byte	0x8e
	.uleb128 0x1
	.align	2
.LEFDE18:
.LSFDE20:
	.4byte	.LEFDE20-.LASFDE20
.LASFDE20:
	.4byte	.Lframe0
	.4byte	.LFB174
	.4byte	.LFE174-.LFB174
	.byte	0x4
	.4byte	.LCFI17-.LFB174
	.byte	0xe
	.uleb128 0x8
	.byte	0x83
	.uleb128 0x2
	.byte	0x8e
	.uleb128 0x1
	.align	2
.LEFDE20:
.LSFDE22:
	.4byte	.LEFDE22-.LASFDE22
.LASFDE22:
	.4byte	.Lframe0
	.4byte	.LFB175
	.4byte	.LFE175-.LFB175
	.byte	0x4
	.4byte	.LCFI18-.LFB175
	.byte	0xe
	.uleb128 0x8
	.byte	0x83
	.uleb128 0x2
	.byte	0x8e
	.uleb128 0x1
	.align	2
.LEFDE22:
.LSFDE24:
	.4byte	.LEFDE24-.LASFDE24
.LASFDE24:
	.4byte	.Lframe0
	.4byte	.LFB176
	.4byte	.LFE176-.LFB176
	.byte	0x4
	.4byte	.LCFI19-.LFB176
	.byte	0xe
	.uleb128 0x8
	.byte	0x83
	.uleb128 0x2
	.byte	0x8e
	.uleb128 0x1
	.align	2
.LEFDE24:
.LSFDE26:
	.4byte	.LEFDE26-.LASFDE26
.LASFDE26:
	.4byte	.Lframe0
	.4byte	.LFB177
	.4byte	.LFE177-.LFB177
	.byte	0x4
	.4byte	.LCFI20-.LFB177
	.byte	0xe
	.uleb128 0x8
	.byte	0x83
	.uleb128 0x2
	.byte	0x8e
	.uleb128 0x1
	.align	2
.LEFDE26:
.LSFDE28:
	.4byte	.LEFDE28-.LASFDE28
.LASFDE28:
	.4byte	.Lframe0
	.4byte	.LFB178
	.4byte	.LFE178-.LFB178
	.align	2
.LEFDE28:
.LSFDE30:
	.4byte	.LEFDE30-.LASFDE30
.LASFDE30:
	.4byte	.Lframe0
	.4byte	.LFB179
	.4byte	.LFE179-.LFB179
	.byte	0x4
	.4byte	.LCFI21-.LFB179
	.byte	0xe
	.uleb128 0x4
	.byte	0x8e
	.uleb128 0x1
	.byte	0x4
	.4byte	.LCFI22-.LCFI21
	.byte	0xe
	.uleb128 0x10
	.byte	0x4
	.4byte	.LCFI23-.LCFI22
	.byte	0xe
	.uleb128 0x4
	.align	2
.LEFDE30:
.LSFDE32:
	.4byte	.LEFDE32-.LASFDE32
.LASFDE32:
	.4byte	.Lframe0
	.4byte	.LFB180
	.4byte	.LFE180-.LFB180
	.byte	0x4
	.4byte	.LCFI24-.LFB180
	.byte	0xe
	.uleb128 0x8
	.byte	0x83
	.uleb128 0x2
	.byte	0x8e
	.uleb128 0x1
	.align	2
.LEFDE32:
.LSFDE34:
	.4byte	.LEFDE34-.LASFDE34
.LASFDE34:
	.4byte	.Lframe0
	.4byte	.LFB181
	.4byte	.LFE181-.LFB181
	.byte	0x4
	.4byte	.LCFI25-.LFB181
	.byte	0xe
	.uleb128 0x10
	.byte	0x4
	.4byte	.LCFI26-.LCFI25
	.byte	0xe
	.uleb128 0
	.align	2
.LEFDE34:
.LSFDE36:
	.4byte	.LEFDE36-.LASFDE36
.LASFDE36:
	.4byte	.Lframe0
	.4byte	.LFB182
	.4byte	.LFE182-.LFB182
	.byte	0x4
	.4byte	.LCFI27-.LFB182
	.byte	0xe
	.uleb128 0x10
	.byte	0x4
	.4byte	.LCFI28-.LCFI27
	.byte	0xe
	.uleb128 0
	.align	2
.LEFDE36:
.LSFDE38:
	.4byte	.LEFDE38-.LASFDE38
.LASFDE38:
	.4byte	.Lframe0
	.4byte	.LFB183
	.4byte	.LFE183-.LFB183
	.byte	0x4
	.4byte	.LCFI29-.LFB183
	.byte	0xe
	.uleb128 0x4
	.byte	0x8e
	.uleb128 0x1
	.byte	0x4
	.4byte	.LCFI30-.LCFI29
	.byte	0xe
	.uleb128 0x10
	.byte	0x4
	.4byte	.LCFI31-.LCFI30
	.byte	0xe
	.uleb128 0x4
	.align	2
.LEFDE38:
.LSFDE40:
	.4byte	.LEFDE40-.LASFDE40
.LASFDE40:
	.4byte	.Lframe0
	.4byte	.LFB184
	.4byte	.LFE184-.LFB184
	.byte	0x4
	.4byte	.LCFI32-.LFB184
	.byte	0xe
	.uleb128 0x8
	.byte	0x83
	.uleb128 0x2
	.byte	0x8e
	.uleb128 0x1
	.align	2
.LEFDE40:
.LSFDE42:
	.4byte	.LEFDE42-.LASFDE42
.LASFDE42:
	.4byte	.Lframe0
	.4byte	.LFB185
	.4byte	.LFE185-.LFB185
	.byte	0x4
	.4byte	.LCFI33-.LFB185
	.byte	0xe
	.uleb128 0x8
	.byte	0x83
	.uleb128 0x2
	.byte	0x8e
	.uleb128 0x1
	.align	2
.LEFDE42:
.LSFDE44:
	.4byte	.LEFDE44-.LASFDE44
.LASFDE44:
	.4byte	.Lframe0
	.4byte	.LFB186
	.4byte	.LFE186-.LFB186
	.byte	0x4
	.4byte	.LCFI34-.LFB186
	.byte	0xe
	.uleb128 0x4
	.byte	0x8e
	.uleb128 0x1
	.byte	0x4
	.4byte	.LCFI35-.LCFI34
	.byte	0xe
	.uleb128 0x10
	.byte	0x4
	.4byte	.LCFI36-.LCFI35
	.byte	0xe
	.uleb128 0x4
	.align	2
.LEFDE44:
.LSFDE46:
	.4byte	.LEFDE46-.LASFDE46
.LASFDE46:
	.4byte	.Lframe0
	.4byte	.LFB187
	.4byte	.LFE187-.LFB187
	.byte	0x4
	.4byte	.LCFI37-.LFB187
	.byte	0xe
	.uleb128 0x8
	.byte	0x83
	.uleb128 0x2
	.byte	0x8e
	.uleb128 0x1
	.align	2
.LEFDE46:
.LSFDE48:
	.4byte	.LEFDE48-.LASFDE48
.LASFDE48:
	.4byte	.Lframe0
	.4byte	.LFB188
	.4byte	.LFE188-.LFB188
	.byte	0x4
	.4byte	.LCFI38-.LFB188
	.byte	0xe
	.uleb128 0x8
	.byte	0x83
	.uleb128 0x2
	.byte	0x8e
	.uleb128 0x1
	.align	2
.LEFDE48:
.LSFDE50:
	.4byte	.LEFDE50-.LASFDE50
.LASFDE50:
	.4byte	.Lframe0
	.4byte	.LFB189
	.4byte	.LFE189-.LFB189
	.byte	0x4
	.4byte	.LCFI39-.LFB189
	.byte	0xe
	.uleb128 0x10
	.byte	0x4
	.4byte	.LCFI40-.LCFI39
	.byte	0xe
	.uleb128 0
	.align	2
.LEFDE50:
.LSFDE52:
	.4byte	.LEFDE52-.LASFDE52
.LASFDE52:
	.4byte	.Lframe0
	.4byte	.LFB190
	.4byte	.LFE190-.LFB190
	.byte	0x4
	.4byte	.LCFI41-.LFB190
	.byte	0xe
	.uleb128 0x8
	.byte	0x4
	.4byte	.LCFI42-.LCFI41
	.byte	0xe
	.uleb128 0
	.align	2
.LEFDE52:
.LSFDE54:
	.4byte	.LEFDE54-.LASFDE54
.LASFDE54:
	.4byte	.Lframe0
	.4byte	.LFB191
	.4byte	.LFE191-.LFB191
	.byte	0x4
	.4byte	.LCFI43-.LFB191
	.byte	0xe
	.uleb128 0x10
	.byte	0x4
	.4byte	.LCFI44-.LCFI43
	.byte	0xe
	.uleb128 0
	.align	2
.LEFDE54:
.LSFDE56:
	.4byte	.LEFDE56-.LASFDE56
.LASFDE56:
	.4byte	.Lframe0
	.4byte	.LFB192
	.4byte	.LFE192-.LFB192
	.byte	0x4
	.4byte	.LCFI45-.LFB192
	.byte	0xe
	.uleb128 0x4
	.byte	0x8e
	.uleb128 0x1
	.byte	0x4
	.4byte	.LCFI46-.LCFI45
	.byte	0xe
	.uleb128 0x18
	.byte	0x4
	.4byte	.LCFI47-.LCFI46
	.byte	0xe
	.uleb128 0x4
	.align	2
.LEFDE56:
.LSFDE58:
	.4byte	.LEFDE58-.LASFDE58
.LASFDE58:
	.4byte	.Lframe0
	.4byte	.LFB193
	.4byte	.LFE193-.LFB193
	.byte	0x4
	.4byte	.LCFI48-.LFB193
	.byte	0xe
	.uleb128 0x8
	.byte	0x83
	.uleb128 0x2
	.byte	0x8e
	.uleb128 0x1
	.align	2
.LEFDE58:
	.text
.Letext0:
	.file 4 "C:/Program Files/SEGGER/SEGGER Embedded Studio for ARM 4.12/include/stdint.h"
	.file 5 "C:/Program Files/SEGGER/SEGGER Embedded Studio for ARM 4.12/include/__crossworks.h"
	.file 6 "../../../nRF5_SDK_14.2.0/components/libraries/util/sdk_errors.h"
	.file 7 "C:/Users/paulr/AppData/Local/SEGGER/SEGGER Embedded Studio/v3/packages/nRF/CMSIS/Device/Include/nrf52.h"
	.file 8 "C:/Users/paulr/AppData/Local/SEGGER/SEGGER Embedded Studio/v3/packages/CMSIS_5/CMSIS/Core/Include/core_cm4.h"
	.file 9 "C:/Users/paulr/AppData/Local/SEGGER/SEGGER Embedded Studio/v3/packages/nRF/CMSIS/Device/Include/system_nrf52.h"
	.file 10 "../../../nRF5_SDK_14.2.0/components/libraries/util/app_util.h"
	.file 11 "C:/Program Files/SEGGER/SEGGER Embedded Studio for ARM 4.12/include/stdio.h"
	.file 12 "C:\\Users\\paulr\\OneDrive\\Documents\\DARPA\\darpasubt\\darpasubt\\firmware\\dwm1001_dev_source_code\\nRF5_SDK_14.2.0\\components\\drivers_nrf\\clock\\nrf_drv_clock.h"
	.file 13 "../../../nRF5_SDK_14.2.0/components/libraries/experimental_log/src/nrf_log_internal.h"