	.cpu cortex-m4
	.eabi_attribute 27, 1
	.eabi_attribute 28, 1
	.eabi_attribute 20, 1
	.eabi_attribute 21, 1
	.eabi_attribute 23, 3
	.eabi_attribute 24, 1
	.eabi_attribute 25, 1
	.eabi_attribute 26, 1
	.eabi_attribute 30, 6
	.eabi_attribute 34, 1
	.eabi_attribute 18, 4
	.file	"nrf_fprintf_format.c"
	.text
.Ltext0:
	.section	.text.buffer_add,"ax",%progbits
	.align	1
	.syntax unified
	.thumb
	.thumb_func
	.fpu fpv4-sp-d16
	.type	buffer_add, %function
buffer_add:
.LFB147:
	.file 1 "C:\\Users\\paulr\\OneDrive\\Documents\\DARPA\\darpasubt\\darpasubt\\firmware\\dwm1001_dev_source_code\\nRF5_SDK_14.2.0\\external\\fprintf\\nrf_fprintf_format.c"
	.loc 1 73 0
	@ args = 0, pretend = 0, frame = 8
	@ frame_needed = 0, uses_anonymous_args = 0
	push	{lr}
.LCFI0:
	sub	sp, sp, #12
.LCFI1:
	str	r0, [sp, #4]
	mov	r3, r1
	strb	r3, [sp, #3]
	.loc 1 74 0
	ldr	r3, [sp, #4]
	ldr	r2, [r3]
	ldr	r3, [sp, #4]
	ldr	r3, [r3, #8]
	adds	r0, r3, #1
	ldr	r1, [sp, #4]
	str	r0, [r1, #8]
	add	r3, r3, r2
	ldrb	r2, [sp, #3]
	strb	r2, [r3]
	.loc 1 76 0
	ldr	r3, [sp, #4]
	ldr	r2, [r3, #8]
	ldr	r3, [sp, #4]
	ldr	r3, [r3, #4]
	cmp	r2, r3
	bcc	.L3
	.loc 1 78 0
	ldr	r0, [sp, #4]
	bl	nrf_fprintf_buffer_flush
.L3:
	.loc 1 80 0
	nop
	add	sp, sp, #12
.LCFI2:
	@ sp needed
	ldr	pc, [sp], #4
.LFE147:
	.size	buffer_add, .-buffer_add
	.section	.text.string_print,"ax",%progbits
	.align	1
	.syntax unified
	.thumb
	.thumb_func
	.fpu fpv4-sp-d16
	.type	string_print, %function
string_print:
.LFB148:
	.loc 1 86 0
	@ args = 0, pretend = 0, frame = 24
	@ frame_needed = 0, uses_anonymous_args = 0
	push	{lr}
.LCFI3:
	sub	sp, sp, #28
.LCFI4:
	str	r0, [sp, #12]
	str	r1, [sp, #8]
	str	r2, [sp, #4]
	str	r3, [sp]
	.loc 1 87 0
	movs	r3, #0
	str	r3, [sp, #20]
	.loc 1 90 0
	ldr	r3, [sp]
	and	r3, r3, #1
	cmp	r3, #0
	beq	.L5
	.loc 1 92 0
	b	.L6
.L7:
	.loc 1 94 0
	ldr	r3, [sp, #8]
	adds	r3, r3, #1
	str	r3, [sp, #8]
	.loc 1 95 0
	ldr	r3, [sp, #20]
	adds	r3, r3, #1
	str	r3, [sp, #20]
	.loc 1 96 0
	ldrb	r3, [sp, #19]	@ zero_extendqisi2
	mov	r1, r3
	ldr	r0, [sp, #12]
	bl	buffer_add
.L6:
	.loc 1 92 0
	ldr	r3, [sp, #8]
	ldrb	r3, [r3]
	strb	r3, [sp, #19]
	ldrb	r3, [sp, #19]	@ zero_extendqisi2
	cmp	r3, #0
	bne	.L7
	.loc 1 99 0
	b	.L8
.L10:
	.loc 1 101 0
	ldr	r3, [sp, #4]
	subs	r3, r3, #1
	str	r3, [sp, #4]
	.loc 1 102 0
	movs	r1, #32
	ldr	r0, [sp, #12]
	bl	buffer_add
.L8:
	.loc 1 99 0
	ldr	r2, [sp, #4]
	ldr	r3, [sp, #20]
	cmp	r2, r3
	bls	.L17
	.loc 1 99 0 is_stmt 0 discriminator 1
	ldr	r3, [sp, #4]
	cmp	r3, #0
	bne	.L10
	.loc 1 125 0 is_stmt 1
	b	.L17
.L5:
	.loc 1 107 0
	ldr	r3, [sp, #8]
	cmp	r3, #0
	beq	.L12
	.loc 1 109 0
	ldr	r0, [sp, #8]
	bl	strlen
	str	r0, [sp, #20]
	.loc 1 112 0
	b	.L12
.L14:
	.loc 1 114 0
	ldr	r3, [sp, #4]
	subs	r3, r3, #1
	str	r3, [sp, #4]
	.loc 1 115 0
	movs	r1, #32
	ldr	r0, [sp, #12]
	bl	buffer_add
.L12:
	.loc 1 112 0
	ldr	r2, [sp, #4]
	ldr	r3, [sp, #20]
	cmp	r2, r3
	bls	.L15
	.loc 1 112 0 is_stmt 0 discriminator 1
	ldr	r3, [sp, #4]
	cmp	r3, #0
	bne	.L14
	.loc 1 118 0 is_stmt 1
	b	.L15
.L16:
	.loc 1 120 0
	ldr	r3, [sp, #8]
	adds	r3, r3, #1
	str	r3, [sp, #8]
	.loc 1 121 0
	ldr	r3, [sp, #20]
	adds	r3, r3, #1
	str	r3, [sp, #20]
	.loc 1 122 0
	ldrb	r3, [sp, #19]	@ zero_extendqisi2
	mov	r1, r3
	ldr	r0, [sp, #12]
	bl	buffer_add
.L15:
	.loc 1 118 0
	ldr	r3, [sp, #8]
	ldrb	r3, [r3]
	strb	r3, [sp, #19]
	ldrb	r3, [sp, #19]	@ zero_extendqisi2
	cmp	r3, #0
	bne	.L16
.L17:
	.loc 1 125 0
	nop
	add	sp, sp, #28
.LCFI5:
	@ sp needed
	ldr	pc, [sp], #4
.LFE148:
	.size	string_print, .-string_print
	.section	.text.unsigned_print,"ax",%progbits
	.align	1
	.syntax unified
	.thumb
	.thumb_func
	.fpu fpv4-sp-d16
	.type	unsigned_print, %function
unsigned_print:
.LFB149:
	.loc 1 133 0
	@ args = 8, pretend = 0, frame = 32
	@ frame_needed = 0, uses_anonymous_args = 0
	push	{lr}
.LCFI6:
	sub	sp, sp, #36
.LCFI7:
	str	r0, [sp, #12]
	str	r1, [sp, #8]
	str	r2, [sp, #4]
	str	r3, [sp]
	.loc 1 141 0
	ldr	r3, [sp, #8]
	str	r3, [sp, #28]
	.loc 1 145 0
	movs	r3, #1
	str	r3, [sp, #24]
	.loc 1 146 0
	b	.L19
.L20:
	.loc 1 148 0
	ldr	r2, [sp, #28]
	ldr	r3, [sp, #4]
	udiv	r3, r2, r3
	str	r3, [sp, #28]
	.loc 1 149 0
	ldr	r3, [sp, #24]
	adds	r3, r3, #1
	str	r3, [sp, #24]
.L19:
	.loc 1 146 0
	ldr	r2, [sp, #28]
	ldr	r3, [sp, #4]
	cmp	r2, r3
	bcs	.L20
	.loc 1 151 0
	ldr	r2, [sp]
	ldr	r3, [sp, #24]
	cmp	r2, r3
	bls	.L21
	.loc 1 153 0
	ldr	r3, [sp]
	str	r3, [sp, #24]
.L21:
	.loc 1 158 0
	ldr	r3, [sp, #44]
	and	r3, r3, #1
	cmp	r3, #0
	bne	.L22
	.loc 1 160 0
	ldr	r3, [sp, #40]
	cmp	r3, #0
	beq	.L22
	.loc 1 162 0
	ldr	r3, [sp, #44]
	and	r3, r3, #2
	cmp	r3, #0
	beq	.L23
	.loc 1 162 0 is_stmt 0 discriminator 1
	ldr	r3, [sp]
	cmp	r3, #0
	bne	.L23
	.loc 1 165 0 is_stmt 1
	movs	r3, #48
	strb	r3, [sp, #23]
	b	.L24
.L23:
	.loc 1 169 0
	movs	r3, #32
	strb	r3, [sp, #23]
.L24:
	.loc 1 171 0
	b	.L25
.L26:
	.loc 1 173 0
	ldr	r3, [sp, #40]
	subs	r3, r3, #1
	str	r3, [sp, #40]
	.loc 1 174 0
	ldrb	r3, [sp, #23]	@ zero_extendqisi2
	mov	r1, r3
	ldr	r0, [sp, #12]
	bl	buffer_add
.L25:
	.loc 1 171 0
	ldr	r3, [sp, #40]
	cmp	r3, #0
	beq	.L22
	.loc 1 171 0 is_stmt 0 discriminator 1
	ldr	r2, [sp, #24]
	ldr	r3, [sp, #40]
	cmp	r2, r3
	bcc	.L26
.L22:
	.loc 1 179 0 is_stmt 1
	movs	r3, #1
	str	r3, [sp, #28]
.L30:
	.loc 1 191 0
	ldr	r3, [sp]
	cmp	r3, #1
	bls	.L27
	.loc 1 193 0
	ldr	r3, [sp]
	subs	r3, r3, #1
	str	r3, [sp]
	b	.L28
.L27:
	.loc 1 197 0
	ldr	r2, [sp, #8]
	ldr	r3, [sp, #28]
	udiv	r3, r2, r3
	str	r3, [sp, #16]
	.loc 1 199 0
	ldr	r2, [sp, #16]
	ldr	r3, [sp, #4]
	cmp	r2, r3
	bcs	.L28
	.loc 1 201 0
	b	.L29
.L28:
	.loc 1 204 0
	ldr	r3, [sp, #28]
	ldr	r2, [sp, #4]
	mul	r3, r2, r3
	str	r3, [sp, #28]
	.loc 1 191 0
	b	.L30
.L29:
	.loc 1 211 0 discriminator 1
	ldr	r2, [sp, #8]
	ldr	r3, [sp, #28]
	udiv	r3, r2, r3
	str	r3, [sp, #16]
	.loc 1 212 0 discriminator 1
	ldr	r3, [sp, #16]
	ldr	r2, [sp, #28]
	mul	r3, r2, r3
	ldr	r2, [sp, #8]
	subs	r3, r2, r3
	str	r3, [sp, #8]
	.loc 1 213 0 discriminator 1
	ldr	r2, .L35
	ldr	r3, [sp, #16]
	add	r3, r3, r2
	ldrb	r3, [r3]	@ zero_extendqisi2
	mov	r1, r3
	ldr	r0, [sp, #12]
	bl	buffer_add
	.loc 1 214 0 discriminator 1
	ldr	r2, [sp, #28]
	ldr	r3, [sp, #4]
	udiv	r3, r2, r3
	str	r3, [sp, #28]
	.loc 1 215 0 discriminator 1
	ldr	r3, [sp, #28]
	cmp	r3, #0
	bne	.L29
	.loc 1 219 0
	ldr	r3, [sp, #44]
	and	r3, r3, #1
	cmp	r3, #0
	beq	.L34
	.loc 1 221 0
	ldr	r3, [sp, #40]
	cmp	r3, #0
	beq	.L34
	.loc 1 223 0
	b	.L32
.L33:
	.loc 1 225 0
	ldr	r3, [sp, #40]
	subs	r3, r3, #1
	str	r3, [sp, #40]
	.loc 1 226 0
	movs	r1, #32
	ldr	r0, [sp, #12]
	bl	buffer_add
.L32:
	.loc 1 223 0
	ldr	r3, [sp, #40]
	cmp	r3, #0
	beq	.L34
	.loc 1 223 0 is_stmt 0 discriminator 1
	ldr	r2, [sp, #24]
	ldr	r3, [sp, #40]
	cmp	r2, r3
	bcc	.L33
.L34:
	.loc 1 230 0 is_stmt 1
	nop
	add	sp, sp, #36
.LCFI8:
	@ sp needed
	ldr	pc, [sp], #4
.L36:
	.align	2
.L35:
	.word	_aV2C.7643
.LFE149:
	.size	unsigned_print, .-unsigned_print
	.section	.text.int_print,"ax",%progbits
	.align	1
	.syntax unified
	.thumb
	.thumb_func
	.fpu fpv4-sp-d16
	.type	int_print, %function
int_print:
.LFB150:
	.loc 1 238 0
	@ args = 8, pretend = 0, frame = 24
	@ frame_needed = 0, uses_anonymous_args = 0
	push	{lr}
.LCFI9:
	sub	sp, sp, #36
.LCFI10:
	str	r0, [sp, #20]
	str	r1, [sp, #16]
	str	r2, [sp, #12]
	str	r3, [sp, #8]
	.loc 1 242 0
	ldr	r3, [sp, #16]
	cmp	r3, #0
	it	lt
	rsblt	r3, r3, #0
	str	r3, [sp, #24]
	.loc 1 247 0
	movs	r3, #1
	str	r3, [sp, #28]
	.loc 1 248 0
	b	.L38
.L39:
	.loc 1 250 0
	ldr	r3, [sp, #12]
	ldr	r2, [sp, #24]
	sdiv	r3, r2, r3
	str	r3, [sp, #24]
	.loc 1 251 0
	ldr	r3, [sp, #28]
	adds	r3, r3, #1
	str	r3, [sp, #28]
.L38:
	.loc 1 248 0
	ldr	r3, [sp, #12]
	ldr	r2, [sp, #24]
	cmp	r2, r3
	bge	.L39
	.loc 1 253 0
	ldr	r2, [sp, #8]
	ldr	r3, [sp, #28]
	cmp	r2, r3
	bls	.L40
	.loc 1 255 0
	ldr	r3, [sp, #8]
	str	r3, [sp, #28]
.L40:
	.loc 1 257 0
	ldr	r3, [sp, #40]
	cmp	r3, #0
	beq	.L41
	.loc 1 257 0 is_stmt 0 discriminator 1
	ldr	r3, [sp, #16]
	cmp	r3, #0
	blt	.L42
	.loc 1 258 0 is_stmt 1 discriminator 2
	ldr	r3, [sp, #44]
	and	r3, r3, #4
	.loc 1 257 0 discriminator 2
	cmp	r3, #0
	beq	.L41
.L42:
	.loc 1 260 0
	ldr	r3, [sp, #40]
	subs	r3, r3, #1
	str	r3, [sp, #40]
.L41:
	.loc 1 265 0
	ldr	r3, [sp, #44]
	and	r3, r3, #2
	cmp	r3, #0
	beq	.L43
	.loc 1 265 0 is_stmt 0 discriminator 2
	ldr	r3, [sp, #8]
	cmp	r3, #0
	beq	.L44
.L43:
	.loc 1 266 0 is_stmt 1 discriminator 3
	ldr	r3, [sp, #44]
	and	r3, r3, #1
	.loc 1 265 0 discriminator 3
	cmp	r3, #0
	bne	.L44
	.loc 1 268 0
	ldr	r3, [sp, #40]
	cmp	r3, #0
	beq	.L44
	.loc 1 270 0
	b	.L45
.L46:
	.loc 1 272 0
	ldr	r3, [sp, #40]
	subs	r3, r3, #1
	str	r3, [sp, #40]
	.loc 1 273 0
	movs	r1, #32
	ldr	r0, [sp, #20]
	bl	buffer_add
.L45:
	.loc 1 270 0
	ldr	r3, [sp, #40]
	cmp	r3, #0
	beq	.L44
	.loc 1 270 0 is_stmt 0 discriminator 1
	ldr	r2, [sp, #28]
	ldr	r3, [sp, #40]
	cmp	r2, r3
	bcc	.L46
.L44:
	.loc 1 280 0 is_stmt 1
	ldr	r3, [sp, #16]
	cmp	r3, #0
	bge	.L47
	.loc 1 282 0
	ldr	r3, [sp, #16]
	negs	r3, r3
	str	r3, [sp, #16]
	.loc 1 283 0
	movs	r1, #45
	ldr	r0, [sp, #20]
	bl	buffer_add
	b	.L48
.L47:
	.loc 1 285 0
	ldr	r3, [sp, #44]
	and	r3, r3, #4
	cmp	r3, #0
	beq	.L48
	.loc 1 287 0
	movs	r1, #43
	ldr	r0, [sp, #20]
	bl	buffer_add
.L48:
	.loc 1 296 0
	ldr	r3, [sp, #44]
	and	r3, r3, #2
	cmp	r3, #0
	beq	.L49
	.loc 1 297 0 discriminator 1
	ldr	r3, [sp, #44]
	and	r3, r3, #1
	.loc 1 296 0 discriminator 1
	cmp	r3, #0
	bne	.L49
	.loc 1 297 0
	ldr	r3, [sp, #8]
	cmp	r3, #0
	bne	.L49
	.loc 1 299 0
	ldr	r3, [sp, #40]
	cmp	r3, #0
	beq	.L49
	.loc 1 301 0
	b	.L50
.L51:
	.loc 1 303 0
	ldr	r3, [sp, #40]
	subs	r3, r3, #1
	str	r3, [sp, #40]
	.loc 1 304 0
	movs	r1, #48
	ldr	r0, [sp, #20]
	bl	buffer_add
.L50:
	.loc 1 301 0
	ldr	r3, [sp, #40]
	cmp	r3, #0
	beq	.L49
	.loc 1 301 0 is_stmt 0 discriminator 1
	ldr	r2, [sp, #28]
	ldr	r3, [sp, #40]
	cmp	r2, r3
	bcc	.L51
.L49:
	.loc 1 311 0 is_stmt 1
	ldr	r1, [sp, #16]
	ldr	r3, [sp, #44]
	str	r3, [sp, #4]
	ldr	r3, [sp, #40]
	str	r3, [sp]
	ldr	r3, [sp, #8]
	ldr	r2, [sp, #12]
	ldr	r0, [sp, #20]
	bl	unsigned_print
	.loc 1 312 0
	nop
	add	sp, sp, #36
.LCFI11:
	@ sp needed
	ldr	pc, [sp], #4
.LFE150:
	.size	int_print, .-int_print
	.section	.text.nrf_fprintf_fmt,"ax",%progbits
	.align	1
	.global	nrf_fprintf_fmt
	.syntax unified
	.thumb
	.thumb_func
	.fpu fpv4-sp-d16
	.type	nrf_fprintf_fmt, %function
nrf_fprintf_fmt:
.LFB151:
	.loc 1 317 0
	@ args = 0, pretend = 0, frame = 48
	@ frame_needed = 0, uses_anonymous_args = 0
	push	{lr}
.LCFI12:
	sub	sp, sp, #60
.LCFI13:
	str	r0, [sp, #20]
	str	r1, [sp, #16]
	str	r2, [sp, #12]
	.loc 1 324 0
	ldr	r3, [sp, #16]
	cmp	r3, #0
	beq	.L84
.L53:
	.loc 1 337 0
	ldr	r3, [sp, #16]
	ldrb	r3, [r3]
	strb	r3, [sp, #55]
	.loc 1 338 0
	ldr	r3, [sp, #16]
	adds	r3, r3, #1
	str	r3, [sp, #16]
	.loc 1 340 0
	ldrb	r3, [sp, #55]	@ zero_extendqisi2
	cmp	r3, #0
	beq	.L85
	.loc 1 344 0
	ldrb	r3, [sp, #55]	@ zero_extendqisi2
	cmp	r3, #37
	bne	.L57
	.loc 1 349 0
	movs	r3, #0
	str	r3, [sp, #40]
	.loc 1 350 0
	movs	r3, #1
	str	r3, [sp, #48]
.L63:
	.loc 1 354 0
	ldr	r3, [sp, #16]
	ldrb	r3, [r3]
	strb	r3, [sp, #55]
	.loc 1 355 0
	ldrb	r3, [sp, #55]	@ zero_extendqisi2
	cmp	r3, #45
	beq	.L59
	cmp	r3, #48
	beq	.L60
	cmp	r3, #43
	beq	.L61
	b	.L83
.L59:
	.loc 1 358 0
	ldr	r3, [sp, #40]
	orr	r3, r3, #1
	str	r3, [sp, #40]
	.loc 1 359 0
	ldr	r3, [sp, #16]
	adds	r3, r3, #1
	str	r3, [sp, #16]
	.loc 1 360 0
	b	.L62
.L60:
	.loc 1 362 0
	ldr	r3, [sp, #40]
	orr	r3, r3, #2
	str	r3, [sp, #40]
	.loc 1 363 0
	ldr	r3, [sp, #16]
	adds	r3, r3, #1
	str	r3, [sp, #16]
	.loc 1 364 0
	b	.L62
.L61:
	.loc 1 366 0
	ldr	r3, [sp, #40]
	orr	r3, r3, #4
	str	r3, [sp, #40]
	.loc 1 367 0
	ldr	r3, [sp, #16]
	adds	r3, r3, #1
	str	r3, [sp, #16]
	.loc 1 368 0
	b	.L62
.L83:
	.loc 1 370 0
	movs	r3, #0
	str	r3, [sp, #48]
	.loc 1 371 0
	nop
.L62:
	.loc 1 373 0
	ldr	r3, [sp, #48]
	cmp	r3, #0
	bne	.L63
	.loc 1 378 0
	movs	r3, #0
	str	r3, [sp, #36]
.L66:
	.loc 1 381 0
	ldrb	r3, [sp, #55]	@ zero_extendqisi2
	cmp	r3, #42
	bne	.L64
	.loc 1 384 0
	ldr	r3, [sp, #12]
	ldr	r3, [r3]
	adds	r1, r3, #4
	ldr	r2, [sp, #12]
	str	r1, [r2]
	ldr	r3, [r3]
	ldr	r2, [sp, #36]
	add	r3, r3, r2
	str	r3, [sp, #36]
	.loc 1 386 0
	ldr	r3, [sp, #16]
	adds	r3, r3, #1
	str	r3, [sp, #16]
	.loc 1 387 0
	b	.L65
.L64:
	.loc 1 389 0
	ldr	r3, [sp, #16]
	ldrb	r3, [r3]
	strb	r3, [sp, #55]
	.loc 1 390 0
	ldrb	r3, [sp, #55]	@ zero_extendqisi2
	cmp	r3, #47
	bls	.L65
	.loc 1 390 0 is_stmt 0 discriminator 1
	ldrb	r3, [sp, #55]	@ zero_extendqisi2
	cmp	r3, #57
	bhi	.L65
	.loc 1 394 0 is_stmt 1
	ldr	r3, [sp, #16]
	adds	r3, r3, #1
	str	r3, [sp, #16]
	.loc 1 395 0
	ldr	r2, [sp, #36]
	mov	r3, r2
	lsls	r3, r3, #2
	add	r3, r3, r2
	lsls	r3, r3, #1
	mov	r2, r3
	ldrb	r3, [sp, #55]	@ zero_extendqisi2
	add	r3, r3, r2
	subs	r3, r3, #48
	str	r3, [sp, #36]
	.loc 1 381 0
	b	.L66
.L65:
	.loc 1 401 0
	movs	r3, #0
	str	r3, [sp, #44]
	.loc 1 402 0
	ldr	r3, [sp, #16]
	ldrb	r3, [r3]
	strb	r3, [sp, #55]
	.loc 1 403 0
	ldrb	r3, [sp, #55]	@ zero_extendqisi2
	cmp	r3, #46
	bne	.L67
	.loc 1 405 0
	ldr	r3, [sp, #16]
	adds	r3, r3, #1
	str	r3, [sp, #16]
.L68:
	.loc 1 408 0
	ldr	r3, [sp, #16]
	ldrb	r3, [r3]
	strb	r3, [sp, #55]
	.loc 1 409 0
	ldrb	r3, [sp, #55]	@ zero_extendqisi2
	cmp	r3, #47
	bls	.L67
	.loc 1 409 0 is_stmt 0 discriminator 1
	ldrb	r3, [sp, #55]	@ zero_extendqisi2
	cmp	r3, #57
	bhi	.L67
	.loc 1 413 0 is_stmt 1
	ldr	r3, [sp, #16]
	adds	r3, r3, #1
	str	r3, [sp, #16]
	.loc 1 414 0
	ldr	r2, [sp, #44]
	mov	r3, r2
	lsls	r3, r3, #2
	add	r3, r3, r2
	lsls	r3, r3, #1
	mov	r2, r3
	ldrb	r3, [sp, #55]	@ zero_extendqisi2
	add	r3, r3, r2
	subs	r3, r3, #48
	str	r3, [sp, #44]
	.loc 1 408 0
	b	.L68
.L67:
	.loc 1 420 0
	ldr	r3, [sp, #16]
	ldrb	r3, [r3]
	strb	r3, [sp, #55]
.L71:
	.loc 1 423 0
	ldrb	r3, [sp, #55]	@ zero_extendqisi2
	cmp	r3, #108
	beq	.L69
	.loc 1 423 0 is_stmt 0 discriminator 1
	ldrb	r3, [sp, #55]	@ zero_extendqisi2
	cmp	r3, #104
	bne	.L70
.L69:
	.loc 1 425 0 is_stmt 1
	ldr	r3, [sp, #16]
	adds	r3, r3, #1
	str	r3, [sp, #16]
	.loc 1 426 0
	ldr	r3, [sp, #16]
	ldrb	r3, [r3]
	strb	r3, [sp, #55]
	.loc 1 423 0
	b	.L71
.L70:
	.loc 1 437 0
	ldrb	r3, [sp, #55]	@ zero_extendqisi2
	subs	r3, r3, #37
	cmp	r3, #83
	bhi	.L86
	adr	r2, .L74
	ldr	pc, [r2, r3, lsl #2]
	.p2align 2
.L74:
	.word	.L73+1
	.word	.L86+1
	.word	.L86+1
	.word	.L86+1
	.word	.L86+1
	.word	.L86+1
	.word	.L86+1
	.word	.L86+1
	.word	.L86+1
	.word	.L86+1
	.word	.L86+1
	.word	.L86+1
	.word	.L86+1
	.word	.L86+1
	.word	.L86+1
	.word	.L86+1
	.word	.L86+1
	.word	.L86+1
	.word	.L86+1
	.word	.L86+1
	.word	.L86+1
	.word	.L86+1
	.word	.L86+1
	.word	.L86+1
	.word	.L86+1
	.word	.L86+1
	.word	.L86+1
	.word	.L86+1
	.word	.L86+1
	.word	.L86+1
	.word	.L86+1
	.word	.L86+1
	.word	.L86+1
	.word	.L86+1
	.word	.L86+1
	.word	.L86+1
	.word	.L86+1
	.word	.L86+1
	.word	.L86+1
	.word	.L86+1
	.word	.L86+1
	.word	.L86+1
	.word	.L86+1
	.word	.L86+1
	.word	.L86+1
	.word	.L86+1
	.word	.L86+1
	.word	.L86+1
	.word	.L86+1
	.word	.L86+1
	.word	.L86+1
	.word	.L75+1
	.word	.L86+1
	.word	.L86+1
	.word	.L86+1
	.word	.L86+1
	.word	.L86+1
	.word	.L86+1
	.word	.L86+1
	.word	.L86+1
	.word	.L86+1
	.word	.L86+1
	.word	.L76+1
	.word	.L77+1
	.word	.L86+1
	.word	.L86+1
	.word	.L86+1
	.word	.L86+1
	.word	.L77+1
	.word	.L86+1
	.word	.L86+1
	.word	.L86+1
	.word	.L86+1
	.word	.L86+1
	.word	.L86+1
	.word	.L78+1
	.word	.L86+1
	.word	.L86+1
	.word	.L79+1
	.word	.L86+1
	.word	.L80+1
	.word	.L86+1
	.word	.L86+1
	.word	.L75+1
	.p2align 1
.L76:
.LBB2:
	.loc 1 442 0
	ldr	r3, [sp, #12]
	ldr	r3, [r3]
	adds	r1, r3, #4
	ldr	r2, [sp, #12]
	str	r1, [r2]
	ldr	r3, [r3]
	str	r3, [sp, #48]
	.loc 1 443 0
	ldr	r3, [sp, #48]
	strb	r3, [sp, #31]
	.loc 1 444 0
	ldrb	r3, [sp, #31]	@ zero_extendqisi2
	mov	r1, r3
	ldr	r0, [sp, #20]
	bl	buffer_add
	.loc 1 445 0
	b	.L81
.L77:
.LBE2:
	.loc 1 449 0
	ldr	r3, [sp, #12]
	ldr	r3, [r3]
	adds	r1, r3, #4
	ldr	r2, [sp, #12]
	str	r1, [r2]
	ldr	r3, [r3]
	str	r3, [sp, #48]
	.loc 1 450 0
	ldr	r3, [sp, #40]
	str	r3, [sp, #4]
	ldr	r3, [sp, #36]
	str	r3, [sp]
	ldr	r3, [sp, #44]
	movs	r2, #10
	ldr	r1, [sp, #48]
	ldr	r0, [sp, #20]
	bl	int_print
	.loc 1 456 0
	b	.L81
.L80:
	.loc 1 458 0
	ldr	r3, [sp, #12]
	ldr	r3, [r3]
	adds	r1, r3, #4
	ldr	r2, [sp, #12]
	str	r1, [r2]
	ldr	r3, [r3]
	str	r3, [sp, #48]
	.loc 1 459 0
	ldr	r1, [sp, #48]
	ldr	r3, [sp, #40]
	str	r3, [sp, #4]
	ldr	r3, [sp, #36]
	str	r3, [sp]
	ldr	r3, [sp, #44]
	movs	r2, #10
	ldr	r0, [sp, #20]
	bl	unsigned_print
	.loc 1 465 0
	b	.L81
.L75:
	.loc 1 468 0
	ldr	r3, [sp, #12]
	ldr	r3, [r3]
	adds	r1, r3, #4
	ldr	r2, [sp, #12]
	str	r1, [r2]
	ldr	r3, [r3]
	str	r3, [sp, #48]
	.loc 1 469 0
	ldr	r1, [sp, #48]
	ldr	r3, [sp, #40]
	str	r3, [sp, #4]
	ldr	r3, [sp, #36]
	str	r3, [sp]
	ldr	r3, [sp, #44]
	movs	r2, #16
	ldr	r0, [sp, #20]
	bl	unsigned_print
	.loc 1 475 0
	b	.L81
.L79:
.LBB3:
	.loc 1 478 0
	ldr	r3, [sp, #12]
	ldr	r3, [r3]
	adds	r1, r3, #4
	ldr	r2, [sp, #12]
	str	r1, [r2]
	ldr	r3, [r3]
	str	r3, [sp, #32]
	.loc 1 479 0
	ldr	r3, [sp, #40]
	ldr	r2, [sp, #36]
	ldr	r1, [sp, #32]
	ldr	r0, [sp, #20]
	bl	string_print
	.loc 1 480 0
	b	.L81
.L78:
.LBE3:
	.loc 1 483 0
	ldr	r3, [sp, #12]
	ldr	r3, [r3]
	adds	r1, r3, #4
	ldr	r2, [sp, #12]
	str	r1, [r2]
	ldr	r3, [r3]
	str	r3, [sp, #48]
	.loc 1 484 0
	movs	r1, #48
	ldr	r0, [sp, #20]
	bl	buffer_add
	.loc 1 485 0
	movs	r1, #120
	ldr	r0, [sp, #20]
	bl	buffer_add
	.loc 1 486 0
	ldr	r1, [sp, #48]
	movs	r3, #0
	str	r3, [sp, #4]
	movs	r3, #8
	str	r3, [sp]
	movs	r3, #8
	movs	r2, #16
	ldr	r0, [sp, #20]
	bl	unsigned_print
	.loc 1 487 0
	b	.L81
.L73:
	.loc 1 489 0
	movs	r1, #37
	ldr	r0, [sp, #20]
	bl	buffer_add
	.loc 1 490 0
	b	.L81
.L86:
	.loc 1 492 0
	nop
.L81:
	.loc 1 495 0
	ldr	r3, [sp, #16]
	adds	r3, r3, #1
	str	r3, [sp, #16]
	b	.L82
.L57:
	.loc 1 499 0
	ldrb	r3, [sp, #55]	@ zero_extendqisi2
	mov	r1, r3
	ldr	r0, [sp, #20]
	bl	buffer_add
.L82:
	.loc 1 501 0
	ldr	r3, [sp, #16]
	ldrb	r3, [r3]	@ zero_extendqisi2
	cmp	r3, #0
	bne	.L53
	b	.L56
.L85:
	.loc 1 342 0
	nop
.L56:
	.loc 1 503 0
	ldr	r3, [sp, #20]
	ldrb	r3, [r3, #12]	@ zero_extendqisi2
	cmp	r3, #0
	beq	.L52
	.loc 1 505 0
	ldr	r0, [sp, #20]
	bl	nrf_fprintf_buffer_flush
	b	.L52
.L84:
	.loc 1 326 0
	nop
.L52:
	.loc 1 507 0
	add	sp, sp, #60
.LCFI14:
	@ sp needed
	ldr	pc, [sp], #4
.LFE151:
	.size	nrf_fprintf_fmt, .-nrf_fprintf_fmt
	.section	.rodata._aV2C.7643,"a",%progbits
	.align	2
	.type	_aV2C.7643, %object
	.size	_aV2C.7643, 16
_aV2C.7643:
	.byte	48
	.byte	49
	.byte	50
	.byte	51
	.byte	52
	.byte	53
	.byte	54
	.byte	55
	.byte	56
	.byte	57
	.byte	65
	.byte	66
	.byte	67
	.byte	68
	.byte	69
	.byte	70
	.section	.debug_frame,"",%progbits
.Lframe0:
	.4byte	.LECIE0-.LSCIE0
.LSCIE0:
	.4byte	0xffffffff
	.byte	0x3
	.ascii	"\000"
	.uleb128 0x1
	.sleb128 -4
	.uleb128 0xe
	.byte	0xc
	.uleb128 0xd
	.uleb128 0
	.align	2
.LECIE0:
.LSFDE0:
	.4byte	.LEFDE0-.LASFDE0
.LASFDE0:
	.4byte	.Lframe0
	.4byte	.LFB147
	.4byte	.LFE147-.LFB147
	.byte	0x4
	.4byte	.LCFI0-.LFB147
	.byte	0xe
	.uleb128 0x4
	.byte	0x8e
	.uleb128 0x1
	.byte	0x4
	.4byte	.LCFI1-.LCFI0
	.byte	0xe
	.uleb128 0x10
	.byte	0x4
	.4byte	.LCFI2-.LCFI1
	.byte	0xe
	.uleb128 0x4
	.align	2
.LEFDE0:
.LSFDE2:
	.4byte	.LEFDE2-.LASFDE2
.LASFDE2:
	.4byte	.Lframe0
	.4byte	.LFB148
	.4byte	.LFE148-.LFB148
	.byte	0x4
	.4byte	.LCFI3-.LFB148
	.byte	0xe
	.uleb128 0x4
	.byte	0x8e
	.uleb128 0x1
	.byte	0x4
	.4byte	.LCFI4-.LCFI3
	.byte	0xe
	.uleb128 0x20
	.byte	0x4
	.4byte	.LCFI5-.LCFI4
	.byte	0xe
	.uleb128 0x4
	.align	2
.LEFDE2:
.LSFDE4:
	.4byte	.LEFDE4-.LASFDE4
.LASFDE4:
	.4byte	.Lframe0
	.4byte	.LFB149
	.4byte	.LFE149-.LFB149
	.byte	0x4
	.4byte	.LCFI6-.LFB149
	.byte	0xe
	.uleb128 0x4
	.byte	0x8e
	.uleb128 0x1
	.byte	0x4
	.4byte	.LCFI7-.LCFI6
	.byte	0xe
	.uleb128 0x28
	.byte	0x4
	.4byte	.LCFI8-.LCFI7
	.byte	0xe
	.uleb128 0x4
	.align	2
.LEFDE4:
.LSFDE6:
	.4byte	.LEFDE6-.LASFDE6
.LASFDE6:
	.4byte	.Lframe0
	.4byte	.LFB150
	.4byte	.LFE150-.LFB150
	.byte	0x4
	.4byte	.LCFI9-.LFB150
	.byte	0xe
	.uleb128 0x4
	.byte	0x8e
	.uleb128 0x1
	.byte	0x4
	.4byte	.LCFI10-.LCFI9
	.byte	0xe
	.uleb128 0x28
	.byte	0x4
	.4byte	.LCFI11-.LCFI10
	.byte	0xe
	.uleb128 0x4
	.align	2
.LEFDE6:
.LSFDE8:
	.4byte	.LEFDE8-.LASFDE8
.LASFDE8:
	.4byte	.Lframe0
	.4byte	.LFB151
	.4byte	.LFE151-.LFB151
	.byte	0x4
	.4byte	.LCFI12-.LFB151
	.byte	0xe
	.uleb128 0x4
	.byte	0x8e
	.uleb128 0x1
	.byte	0x4
	.4byte	.LCFI13-.LCFI12
	.byte	0xe
	.uleb128 0x40
	.byte	0x4
	.4byte	.LCFI14-.LCFI13
	.byte	0xe
	.uleb128 0x4
	.align	2
.LEFDE8:
	.text
.Letext0:
	.file 2 "C:/Program Files/SEGGER/SEGGER Embedded Studio for ARM 4.12/include/stdint.h"
	.file 3 "C:/Program Files/SEGGER/SEGGER Embedded Studio for ARM 4.12/include/__crossworks.h"
	.file 4 "<built-in>"
	.file 5 "C:/Program Files/SEGGER/SEGGER Embedded Studio for ARM 4.12/include/string.h"
	.file 6 "C:/Users/paulr/AppData/Local/SEGGER/SEGGER Embedded Studio/v3/packages/CMSIS_5/CMSIS/Core/Include/core_cm4.h"
	.file 7 "C:/Users/paulr/AppData/Local/SEGGER/SEGGER Embedded Studio/v3/packages/nRF/CMSIS/Device/Include/system_nrf52.h"
	.file 8 "../../../nRF5_SDK_14.2.0/components/libraries/util/app_util.h"
	.file 9 "C:/Program Files/SEGGER/SEGGER Embedded Studio for ARM 4.12/include/stdarg.h"
	.file 10 "C:/Program Files/SEGGER/SEGGER Embedded Studio for ARM 4.12/include/stdio.h"
	.file 11 "C:\\Users\\paulr\\OneDrive\\Documents\\DARPA\\darpasubt\\darpasubt\\firmware\\dwm1001_dev_source_code\\nRF5_SDK_14.2.0\\external\\fprintf\\nrf_fprintf.h"