	.cpu cortex-m4
	.eabi_attribute 27, 1
	.eabi_attribute 28, 1
	.eabi_attribute 20, 1
	.eabi_attribute 21, 1
	.eabi_attribute 23, 3
	.eabi_attribute 24, 1
	.eabi_attribute 25, 1
	.eabi_attribute 26, 1
	.eabi_attribute 30, 6
	.eabi_attribute 34, 1
	.eabi_attribute 18, 4
	.file	"nrf_drv_uart.c"
	.text
.Ltext0:
	.section	.text.__NVIC_DisableIRQ,"ax",%progbits
	.align	1
	.syntax unified
	.thumb
	.thumb_func
	.fpu fpv4-sp-d16
	.type	__NVIC_DisableIRQ, %function
__NVIC_DisableIRQ:
.LFB107:
	.file 1 "C:/Users/paulr/AppData/Local/SEGGER/SEGGER Embedded Studio/v3/packages/CMSIS_5/CMSIS/Core/Include/core_cm4.h"
	.loc 1 1725 0
	@ args = 0, pretend = 0, frame = 8
	@ frame_needed = 0, uses_anonymous_args = 0
	@ link register save eliminated.
	sub	sp, sp, #8
.LCFI0:
	mov	r3, r0
	strb	r3, [sp, #7]
	.loc 1 1726 0
	ldrsb	r3, [sp, #7]
	cmp	r3, #0
	blt	.L3
	.loc 1 1728 0
	ldrb	r3, [sp, #7]	@ zero_extendqisi2
	and	r2, r3, #31
	ldr	r1, .L4
	ldrsb	r3, [sp, #7]
	lsrs	r3, r3, #5
	movs	r0, #1
	lsl	r2, r0, r2
	adds	r3, r3, #32
	str	r2, [r1, r3, lsl #2]
.LBB6:
.LBB7:
	.file 2 "C:/Users/paulr/AppData/Local/SEGGER/SEGGER Embedded Studio/v3/packages/CMSIS_5/CMSIS/Core/Include/cmsis_gcc.h"
	.loc 2 879 0
	.syntax unified
@ 879 "C:/Users/paulr/AppData/Local/SEGGER/SEGGER Embedded Studio/v3/packages/CMSIS_5/CMSIS/Core/Include/cmsis_gcc.h" 1
	dsb 0xF
@ 0 "" 2
	.thumb
	.syntax unified
.LBE7:
.LBE6:
.LBB8:
.LBB9:
	.loc 2 868 0
	.syntax unified
@ 868 "C:/Users/paulr/AppData/Local/SEGGER/SEGGER Embedded Studio/v3/packages/CMSIS_5/CMSIS/Core/Include/cmsis_gcc.h" 1
	isb 0xF
@ 0 "" 2
	.thumb
	.syntax unified
.L3:
.LBE9:
.LBE8:
	.loc 1 1732 0
	nop
	add	sp, sp, #8
.LCFI1:
	@ sp needed
	bx	lr
.L5:
	.align	2
.L4:
	.word	-536813312
.LFE107:
	.size	__NVIC_DisableIRQ, .-__NVIC_DisableIRQ
	.section	.text.nrf_uart_event_clear,"ax",%progbits
	.align	1
	.syntax unified
	.thumb
	.thumb_func
	.fpu fpv4-sp-d16
	.type	nrf_uart_event_clear, %function
nrf_uart_event_clear:
.LFB147:
	.file 3 "../../../nRF5_SDK_14.2.0/components/drivers_nrf/hal/nrf_uart.h"
	.loc 3 384 0
	@ args = 0, pretend = 0, frame = 16
	@ frame_needed = 0, uses_anonymous_args = 0
	@ link register save eliminated.
	sub	sp, sp, #16
.LCFI2:
	str	r0, [sp, #4]
	mov	r3, r1
	strh	r3, [sp, #2]	@ movhi
	.loc 3 385 0
	ldrh	r3, [sp, #2]
	ldr	r2, [sp, #4]
	add	r3, r3, r2
	movs	r2, #0
	str	r2, [r3]
	.loc 3 387 0
	ldrh	r3, [sp, #2]
	ldr	r2, [sp, #4]
	add	r3, r3, r2
	ldr	r3, [r3]
	str	r3, [sp, #12]
	.loc 3 388 0
	ldr	r3, [sp, #12]
	.loc 3 391 0
	nop
	add	sp, sp, #16
.LCFI3:
	@ sp needed
	bx	lr
.LFE147:
	.size	nrf_uart_event_clear, .-nrf_uart_event_clear
	.section	.text.nrf_uart_event_check,"ax",%progbits
	.align	1
	.syntax unified
	.thumb
	.thumb_func
	.fpu fpv4-sp-d16
	.type	nrf_uart_event_check, %function
nrf_uart_event_check:
.LFB148:
	.loc 3 394 0
	@ args = 0, pretend = 0, frame = 8
	@ frame_needed = 0, uses_anonymous_args = 0
	@ link register save eliminated.
	sub	sp, sp, #8
.LCFI4:
	str	r0, [sp, #4]
	mov	r3, r1
	strh	r3, [sp, #2]	@ movhi
	.loc 3 395 0
	ldrh	r3, [sp, #2]
	ldr	r2, [sp, #4]
	add	r3, r3, r2
	ldr	r3, [r3]
	cmp	r3, #0
	ite	ne
	movne	r3, #1
	moveq	r3, #0
	uxtb	r3, r3
	.loc 3 396 0
	mov	r0, r3
	add	sp, sp, #8
.LCFI5:
	@ sp needed
	bx	lr
.LFE148:
	.size	nrf_uart_event_check, .-nrf_uart_event_check
	.section	.text.nrf_uart_int_enable,"ax",%progbits
	.align	1
	.syntax unified
	.thumb
	.thumb_func
	.fpu fpv4-sp-d16
	.type	nrf_uart_int_enable, %function
nrf_uart_int_enable:
.LFB150:
	.loc 3 405 0
	@ args = 0, pretend = 0, frame = 8
	@ frame_needed = 0, uses_anonymous_args = 0
	@ link register save eliminated.
	sub	sp, sp, #8
.LCFI6:
	str	r0, [sp, #4]
	str	r1, [sp]
	.loc 3 406 0
	ldr	r3, [sp, #4]
	ldr	r2, [sp]
	str	r2, [r3, #772]
	.loc 3 407 0
	nop
	add	sp, sp, #8
.LCFI7:
	@ sp needed
	bx	lr
.LFE150:
	.size	nrf_uart_int_enable, .-nrf_uart_int_enable
	.section	.text.nrf_uart_int_enable_check,"ax",%progbits
	.align	1
	.syntax unified
	.thumb
	.thumb_func
	.fpu fpv4-sp-d16
	.type	nrf_uart_int_enable_check, %function
nrf_uart_int_enable_check:
.LFB151:
	.loc 3 410 0
	@ args = 0, pretend = 0, frame = 8
	@ frame_needed = 0, uses_anonymous_args = 0
	@ link register save eliminated.
	sub	sp, sp, #8
.LCFI8:
	str	r0, [sp, #4]
	str	r1, [sp]
	.loc 3 411 0
	ldr	r3, [sp, #4]
	ldr	r2, [r3, #772]
	ldr	r3, [sp]
	ands	r3, r3, r2
	cmp	r3, #0
	ite	ne
	movne	r3, #1
	moveq	r3, #0
	uxtb	r3, r3
	.loc 3 412 0
	mov	r0, r3
	add	sp, sp, #8
.LCFI9:
	@ sp needed
	bx	lr
.LFE151:
	.size	nrf_uart_int_enable_check, .-nrf_uart_int_enable_check
	.section	.text.nrf_uart_int_disable,"ax",%progbits
	.align	1
	.syntax unified
	.thumb
	.thumb_func
	.fpu fpv4-sp-d16
	.type	nrf_uart_int_disable, %function
nrf_uart_int_disable:
.LFB152:
	.loc 3 415 0
	@ args = 0, pretend = 0, frame = 8
	@ frame_needed = 0, uses_anonymous_args = 0
	@ link register save eliminated.
	sub	sp, sp, #8
.LCFI10:
	str	r0, [sp, #4]
	str	r1, [sp]
	.loc 3 416 0
	ldr	r3, [sp, #4]
	ldr	r2, [sp]
	str	r2, [r3, #776]
	.loc 3 417 0
	nop
	add	sp, sp, #8
.LCFI11:
	@ sp needed
	bx	lr
.LFE152:
	.size	nrf_uart_int_disable, .-nrf_uart_int_disable
	.section	.text.nrf_uart_errorsrc_get_and_clear,"ax",%progbits
	.align	1
	.syntax unified
	.thumb
	.thumb_func
	.fpu fpv4-sp-d16
	.type	nrf_uart_errorsrc_get_and_clear, %function
nrf_uart_errorsrc_get_and_clear:
.LFB153:
	.loc 3 420 0
	@ args = 0, pretend = 0, frame = 16
	@ frame_needed = 0, uses_anonymous_args = 0
	@ link register save eliminated.
	sub	sp, sp, #16
.LCFI12:
	str	r0, [sp, #4]
	.loc 3 421 0
	ldr	r3, [sp, #4]
	ldr	r3, [r3, #1152]
	str	r3, [sp, #12]
	.loc 3 422 0
	ldr	r3, [sp, #4]
	ldr	r2, [sp, #12]
	str	r2, [r3, #1152]
	.loc 3 423 0
	ldr	r3, [sp, #12]
	.loc 3 424 0
	mov	r0, r3
	add	sp, sp, #16
.LCFI13:
	@ sp needed
	bx	lr
.LFE153:
	.size	nrf_uart_errorsrc_get_and_clear, .-nrf_uart_errorsrc_get_and_clear
	.section	.text.nrf_uart_enable,"ax",%progbits
	.align	1
	.syntax unified
	.thumb
	.thumb_func
	.fpu fpv4-sp-d16
	.type	nrf_uart_enable, %function
nrf_uart_enable:
.LFB154:
	.loc 3 427 0
	@ args = 0, pretend = 0, frame = 8
	@ frame_needed = 0, uses_anonymous_args = 0
	@ link register save eliminated.
	sub	sp, sp, #8
.LCFI14:
	str	r0, [sp, #4]
	.loc 3 428 0
	ldr	r3, [sp, #4]
	movs	r2, #4
	str	r2, [r3, #1280]
	.loc 3 429 0
	nop
	add	sp, sp, #8
.LCFI15:
	@ sp needed
	bx	lr
.LFE154:
	.size	nrf_uart_enable, .-nrf_uart_enable
	.section	.text.nrf_uart_disable,"ax",%progbits
	.align	1
	.syntax unified
	.thumb
	.thumb_func
	.fpu fpv4-sp-d16
	.type	nrf_uart_disable, %function
nrf_uart_disable:
.LFB155:
	.loc 3 432 0
	@ args = 0, pretend = 0, frame = 8
	@ frame_needed = 0, uses_anonymous_args = 0
	@ link register save eliminated.
	sub	sp, sp, #8
.LCFI16:
	str	r0, [sp, #4]
	.loc 3 433 0
	ldr	r3, [sp, #4]
	movs	r2, #0
	str	r2, [r3, #1280]
	.loc 3 434 0
	nop
	add	sp, sp, #8
.LCFI17:
	@ sp needed
	bx	lr
.LFE155:
	.size	nrf_uart_disable, .-nrf_uart_disable
	.section	.text.nrf_uart_txrx_pins_set,"ax",%progbits
	.align	1
	.syntax unified
	.thumb
	.thumb_func
	.fpu fpv4-sp-d16
	.type	nrf_uart_txrx_pins_set, %function
nrf_uart_txrx_pins_set:
.LFB156:
	.loc 3 437 0
	@ args = 0, pretend = 0, frame = 16
	@ frame_needed = 0, uses_anonymous_args = 0
	@ link register save eliminated.
	sub	sp, sp, #16
.LCFI18:
	str	r0, [sp, #12]
	str	r1, [sp, #8]
	str	r2, [sp, #4]
	.loc 3 441 0
	ldr	r3, [sp, #12]
	ldr	r2, [sp, #4]
	str	r2, [r3, #1300]
	.loc 3 446 0
	ldr	r3, [sp, #12]
	ldr	r2, [sp, #8]
	str	r2, [r3, #1292]
	.loc 3 448 0
	nop
	add	sp, sp, #16
.LCFI19:
	@ sp needed
	bx	lr
.LFE156:
	.size	nrf_uart_txrx_pins_set, .-nrf_uart_txrx_pins_set
	.section	.text.nrf_uart_txrx_pins_disconnect,"ax",%progbits
	.align	1
	.syntax unified
	.thumb
	.thumb_func
	.fpu fpv4-sp-d16
	.type	nrf_uart_txrx_pins_disconnect, %function
nrf_uart_txrx_pins_disconnect:
.LFB157:
	.loc 3 451 0
	@ args = 0, pretend = 0, frame = 8
	@ frame_needed = 0, uses_anonymous_args = 0
	push	{lr}
.LCFI20:
	sub	sp, sp, #12
.LCFI21:
	str	r0, [sp, #4]
	.loc 3 452 0
	mov	r2, #-1
	mov	r1, #-1
	ldr	r0, [sp, #4]
	bl	nrf_uart_txrx_pins_set
	.loc 3 453 0
	nop
	add	sp, sp, #12
.LCFI22:
	@ sp needed
	ldr	pc, [sp], #4
.LFE157:
	.size	nrf_uart_txrx_pins_disconnect, .-nrf_uart_txrx_pins_disconnect
	.section	.text.nrf_uart_tx_pin_get,"ax",%progbits
	.align	1
	.syntax unified
	.thumb
	.thumb_func
	.fpu fpv4-sp-d16
	.type	nrf_uart_tx_pin_get, %function
nrf_uart_tx_pin_get:
.LFB158:
	.loc 3 456 0
	@ args = 0, pretend = 0, frame = 8
	@ frame_needed = 0, uses_anonymous_args = 0
	@ link register save eliminated.
	sub	sp, sp, #8
.LCFI23:
	str	r0, [sp, #4]
	.loc 3 460 0
	ldr	r3, [sp, #4]
	ldr	r3, [r3, #1292]
	.loc 3 462 0
	mov	r0, r3
	add	sp, sp, #8
.LCFI24:
	@ sp needed
	bx	lr
.LFE158:
	.size	nrf_uart_tx_pin_get, .-nrf_uart_tx_pin_get
	.section	.text.nrf_uart_rx_pin_get,"ax",%progbits
	.align	1
	.syntax unified
	.thumb
	.thumb_func
	.fpu fpv4-sp-d16
	.type	nrf_uart_rx_pin_get, %function
nrf_uart_rx_pin_get:
.LFB159:
	.loc 3 465 0
	@ args = 0, pretend = 0, frame = 8
	@ frame_needed = 0, uses_anonymous_args = 0
	@ link register save eliminated.
	sub	sp, sp, #8
.LCFI25:
	str	r0, [sp, #4]
	.loc 3 469 0
	ldr	r3, [sp, #4]
	ldr	r3, [r3, #1300]
	.loc 3 471 0
	mov	r0, r3
	add	sp, sp, #8
.LCFI26:
	@ sp needed
	bx	lr
.LFE159:
	.size	nrf_uart_rx_pin_get, .-nrf_uart_rx_pin_get
	.section	.text.nrf_uart_rts_pin_get,"ax",%progbits
	.align	1
	.syntax unified
	.thumb
	.thumb_func
	.fpu fpv4-sp-d16
	.type	nrf_uart_rts_pin_get, %function
nrf_uart_rts_pin_get:
.LFB160:
	.loc 3 474 0
	@ args = 0, pretend = 0, frame = 8
	@ frame_needed = 0, uses_anonymous_args = 0
	@ link register save eliminated.
	sub	sp, sp, #8
.LCFI27:
	str	r0, [sp, #4]
	.loc 3 478 0
	ldr	r3, [sp, #4]
	ldr	r3, [r3, #1288]
	.loc 3 480 0
	mov	r0, r3
	add	sp, sp, #8
.LCFI28:
	@ sp needed
	bx	lr
.LFE160:
	.size	nrf_uart_rts_pin_get, .-nrf_uart_rts_pin_get
	.section	.text.nrf_uart_cts_pin_get,"ax",%progbits
	.align	1
	.syntax unified
	.thumb
	.thumb_func
	.fpu fpv4-sp-d16
	.type	nrf_uart_cts_pin_get, %function
nrf_uart_cts_pin_get:
.LFB161:
	.loc 3 483 0
	@ args = 0, pretend = 0, frame = 8
	@ frame_needed = 0, uses_anonymous_args = 0
	@ link register save eliminated.
	sub	sp, sp, #8
.LCFI29:
	str	r0, [sp, #4]
	.loc 3 487 0
	ldr	r3, [sp, #4]
	ldr	r3, [r3, #1296]
	.loc 3 489 0
	mov	r0, r3
	add	sp, sp, #8
.LCFI30:
	@ sp needed
	bx	lr
.LFE161:
	.size	nrf_uart_cts_pin_get, .-nrf_uart_cts_pin_get
	.section	.text.nrf_uart_hwfc_pins_set,"ax",%progbits
	.align	1
	.syntax unified
	.thumb
	.thumb_func
	.fpu fpv4-sp-d16
	.type	nrf_uart_hwfc_pins_set, %function
nrf_uart_hwfc_pins_set:
.LFB162:
	.loc 3 492 0
	@ args = 0, pretend = 0, frame = 16
	@ frame_needed = 0, uses_anonymous_args = 0
	@ link register save eliminated.
	sub	sp, sp, #16
.LCFI31:
	str	r0, [sp, #12]
	str	r1, [sp, #8]
	str	r2, [sp, #4]
	.loc 3 496 0
	ldr	r3, [sp, #12]
	ldr	r2, [sp, #8]
	str	r2, [r3, #1288]
	.loc 3 502 0
	ldr	r3, [sp, #12]
	ldr	r2, [sp, #4]
	str	r2, [r3, #1296]
	.loc 3 504 0
	nop
	add	sp, sp, #16
.LCFI32:
	@ sp needed
	bx	lr
.LFE162:
	.size	nrf_uart_hwfc_pins_set, .-nrf_uart_hwfc_pins_set
	.section	.text.nrf_uart_hwfc_pins_disconnect,"ax",%progbits
	.align	1
	.syntax unified
	.thumb
	.thumb_func
	.fpu fpv4-sp-d16
	.type	nrf_uart_hwfc_pins_disconnect, %function
nrf_uart_hwfc_pins_disconnect:
.LFB163:
	.loc 3 507 0
	@ args = 0, pretend = 0, frame = 8
	@ frame_needed = 0, uses_anonymous_args = 0
	push	{lr}
.LCFI33:
	sub	sp, sp, #12
.LCFI34:
	str	r0, [sp, #4]
	.loc 3 508 0
	mov	r2, #-1
	mov	r1, #-1
	ldr	r0, [sp, #4]
	bl	nrf_uart_hwfc_pins_set
	.loc 3 509 0
	nop
	add	sp, sp, #12
.LCFI35:
	@ sp needed
	ldr	pc, [sp], #4
.LFE163:
	.size	nrf_uart_hwfc_pins_disconnect, .-nrf_uart_hwfc_pins_disconnect
	.section	.text.nrf_uart_rxd_get,"ax",%progbits
	.align	1
	.syntax unified
	.thumb
	.thumb_func
	.fpu fpv4-sp-d16
	.type	nrf_uart_rxd_get, %function
nrf_uart_rxd_get:
.LFB164:
	.loc 3 512 0
	@ args = 0, pretend = 0, frame = 8
	@ frame_needed = 0, uses_anonymous_args = 0
	@ link register save eliminated.
	sub	sp, sp, #8
.LCFI36:
	str	r0, [sp, #4]
	.loc 3 513 0
	ldr	r3, [sp, #4]
	ldr	r3, [r3, #1304]
	uxtb	r3, r3
	.loc 3 514 0
	mov	r0, r3
	add	sp, sp, #8
.LCFI37:
	@ sp needed
	bx	lr
.LFE164:
	.size	nrf_uart_rxd_get, .-nrf_uart_rxd_get
	.section	.text.nrf_uart_txd_set,"ax",%progbits
	.align	1
	.syntax unified
	.thumb
	.thumb_func
	.fpu fpv4-sp-d16
	.type	nrf_uart_txd_set, %function
nrf_uart_txd_set:
.LFB165:
	.loc 3 517 0
	@ args = 0, pretend = 0, frame = 8
	@ frame_needed = 0, uses_anonymous_args = 0
	@ link register save eliminated.
	sub	sp, sp, #8
.LCFI38:
	str	r0, [sp, #4]
	mov	r3, r1
	strb	r3, [sp, #3]
	.loc 3 518 0
	ldrb	r2, [sp, #3]	@ zero_extendqisi2
	ldr	r3, [sp, #4]
	str	r2, [r3, #1308]
	.loc 3 519 0
	nop
	add	sp, sp, #8
.LCFI39:
	@ sp needed
	bx	lr
.LFE165:
	.size	nrf_uart_txd_set, .-nrf_uart_txd_set
	.section	.text.nrf_uart_task_trigger,"ax",%progbits
	.align	1
	.syntax unified
	.thumb
	.thumb_func
	.fpu fpv4-sp-d16
	.type	nrf_uart_task_trigger, %function
nrf_uart_task_trigger:
.LFB166:
	.loc 3 522 0
	@ args = 0, pretend = 0, frame = 8
	@ frame_needed = 0, uses_anonymous_args = 0
	@ link register save eliminated.
	sub	sp, sp, #8
.LCFI40:
	str	r0, [sp, #4]
	mov	r3, r1
	strb	r3, [sp, #3]
	.loc 3 523 0
	ldrb	r3, [sp, #3]	@ zero_extendqisi2
	ldr	r2, [sp, #4]
	add	r3, r3, r2
	movs	r2, #1
	str	r2, [r3]
	.loc 3 524 0
	nop
	add	sp, sp, #8
.LCFI41:
	@ sp needed
	bx	lr
.LFE166:
	.size	nrf_uart_task_trigger, .-nrf_uart_task_trigger
	.section	.text.nrf_uart_configure,"ax",%progbits
	.align	1
	.syntax unified
	.thumb
	.thumb_func
	.fpu fpv4-sp-d16
	.type	nrf_uart_configure, %function
nrf_uart_configure:
.LFB168:
	.loc 3 534 0
	@ args = 0, pretend = 0, frame = 8
	@ frame_needed = 0, uses_anonymous_args = 0
	@ link register save eliminated.
	sub	sp, sp, #8
.LCFI42:
	str	r0, [sp, #4]
	mov	r3, r1
	strb	r3, [sp, #3]
	mov	r3, r2
	strb	r3, [sp, #2]
	.loc 3 535 0
	ldrb	r2, [sp, #3]
	ldrb	r3, [sp, #2]
	orrs	r3, r3, r2
	uxtb	r3, r3
	mov	r2, r3
	ldr	r3, [sp, #4]
	str	r2, [r3, #1388]
	.loc 3 536 0
	nop
	add	sp, sp, #8
.LCFI43:
	@ sp needed
	bx	lr
.LFE168:
	.size	nrf_uart_configure, .-nrf_uart_configure
	.section	.text.nrf_uart_baudrate_set,"ax",%progbits
	.align	1
	.syntax unified
	.thumb
	.thumb_func
	.fpu fpv4-sp-d16
	.type	nrf_uart_baudrate_set, %function
nrf_uart_baudrate_set:
.LFB169:
	.loc 3 539 0
	@ args = 0, pretend = 0, frame = 8
	@ frame_needed = 0, uses_anonymous_args = 0
	@ link register save eliminated.
	sub	sp, sp, #8
.LCFI44:
	str	r0, [sp, #4]
	str	r1, [sp]
	.loc 3 540 0
	ldr	r3, [sp, #4]
	ldr	r2, [sp]
	str	r2, [r3, #1316]
	.loc 3 541 0
	nop
	add	sp, sp, #8
.LCFI45:
	@ sp needed
	bx	lr
.LFE169:
	.size	nrf_uart_baudrate_set, .-nrf_uart_baudrate_set
	.section	.text.nrf_uarte_event_clear,"ax",%progbits
	.align	1
	.syntax unified
	.thumb
	.thumb_func
	.fpu fpv4-sp-d16
	.type	nrf_uarte_event_clear, %function
nrf_uarte_event_clear:
.LFB170:
	.file 4 "../../../nRF5_SDK_14.2.0/components/drivers_nrf/hal/nrf_uarte.h"
	.loc 4 450 0
	@ args = 0, pretend = 0, frame = 16
	@ frame_needed = 0, uses_anonymous_args = 0
	@ link register save eliminated.
	sub	sp, sp, #16
.LCFI46:
	str	r0, [sp, #4]
	mov	r3, r1
	strh	r3, [sp, #2]	@ movhi
	.loc 4 451 0
	ldrh	r3, [sp, #2]
	ldr	r2, [sp, #4]
	add	r3, r3, r2
	movs	r2, #0
	str	r2, [r3]
	.loc 4 453 0
	ldrh	r3, [sp, #2]
	ldr	r2, [sp, #4]
	add	r3, r3, r2
	ldr	r3, [r3]
	str	r3, [sp, #12]
	.loc 4 454 0
	ldr	r3, [sp, #12]
	.loc 4 457 0
	nop
	add	sp, sp, #16
.LCFI47:
	@ sp needed
	bx	lr
.LFE170:
	.size	nrf_uarte_event_clear, .-nrf_uarte_event_clear
	.section	.text.nrf_uarte_event_check,"ax",%progbits
	.align	1
	.syntax unified
	.thumb
	.thumb_func
	.fpu fpv4-sp-d16
	.type	nrf_uarte_event_check, %function
nrf_uarte_event_check:
.LFB171:
	.loc 4 460 0
	@ args = 0, pretend = 0, frame = 8
	@ frame_needed = 0, uses_anonymous_args = 0
	@ link register save eliminated.
	sub	sp, sp, #8
.LCFI48:
	str	r0, [sp, #4]
	mov	r3, r1
	strh	r3, [sp, #2]	@ movhi
	.loc 4 461 0
	ldrh	r3, [sp, #2]
	ldr	r2, [sp, #4]
	add	r3, r3, r2
	ldr	r3, [r3]
	cmp	r3, #0
	ite	ne
	movne	r3, #1
	moveq	r3, #0
	uxtb	r3, r3
	.loc 4 462 0
	mov	r0, r3
	add	sp, sp, #8
.LCFI49:
	@ sp needed
	bx	lr
.LFE171:
	.size	nrf_uarte_event_check, .-nrf_uarte_event_check
	.section	.text.nrf_uarte_shorts_enable,"ax",%progbits
	.align	1
	.syntax unified
	.thumb
	.thumb_func
	.fpu fpv4-sp-d16
	.type	nrf_uarte_shorts_enable, %function
nrf_uarte_shorts_enable:
.LFB173:
	.loc 4 471 0
	@ args = 0, pretend = 0, frame = 8
	@ frame_needed = 0, uses_anonymous_args = 0
	@ link register save eliminated.
	sub	sp, sp, #8
.LCFI50:
	str	r0, [sp, #4]
	str	r1, [sp]
	.loc 4 472 0
	ldr	r3, [sp, #4]
	ldr	r2, [r3, #512]
	ldr	r3, [sp]
	orrs	r2, r2, r3
	ldr	r3, [sp, #4]
	str	r2, [r3, #512]
	.loc 4 473 0
	nop
	add	sp, sp, #8
.LCFI51:
	@ sp needed
	bx	lr
.LFE173:
	.size	nrf_uarte_shorts_enable, .-nrf_uarte_shorts_enable
	.section	.text.nrf_uarte_shorts_disable,"ax",%progbits
	.align	1
	.syntax unified
	.thumb
	.thumb_func
	.fpu fpv4-sp-d16
	.type	nrf_uarte_shorts_disable, %function
nrf_uarte_shorts_disable:
.LFB174:
	.loc 4 476 0
	@ args = 0, pretend = 0, frame = 8
	@ frame_needed = 0, uses_anonymous_args = 0
	@ link register save eliminated.
	sub	sp, sp, #8
.LCFI52:
	str	r0, [sp, #4]
	str	r1, [sp]
	.loc 4 477 0
	ldr	r3, [sp, #4]
	ldr	r2, [r3, #512]
	ldr	r3, [sp]
	mvns	r3, r3
	ands	r2, r2, r3
	ldr	r3, [sp, #4]
	str	r2, [r3, #512]
	.loc 4 478 0
	nop
	add	sp, sp, #8
.LCFI53:
	@ sp needed
	bx	lr
.LFE174:
	.size	nrf_uarte_shorts_disable, .-nrf_uarte_shorts_disable
	.section	.text.nrf_uarte_int_enable,"ax",%progbits
	.align	1
	.syntax unified
	.thumb
	.thumb_func
	.fpu fpv4-sp-d16
	.type	nrf_uarte_int_enable, %function
nrf_uarte_int_enable:
.LFB175:
	.loc 4 481 0
	@ args = 0, pretend = 0, frame = 8
	@ frame_needed = 0, uses_anonymous_args = 0
	@ link register save eliminated.
	sub	sp, sp, #8
.LCFI54:
	str	r0, [sp, #4]
	str	r1, [sp]
	.loc 4 482 0
	ldr	r3, [sp, #4]
	ldr	r2, [sp]
	str	r2, [r3, #772]
	.loc 4 483 0
	nop
	add	sp, sp, #8
.LCFI55:
	@ sp needed
	bx	lr
.LFE175:
	.size	nrf_uarte_int_enable, .-nrf_uarte_int_enable
	.section	.text.nrf_uarte_int_disable,"ax",%progbits
	.align	1
	.syntax unified
	.thumb
	.thumb_func
	.fpu fpv4-sp-d16
	.type	nrf_uarte_int_disable, %function
nrf_uarte_int_disable:
.LFB177:
	.loc 4 491 0
	@ args = 0, pretend = 0, frame = 8
	@ frame_needed = 0, uses_anonymous_args = 0
	@ link register save eliminated.
	sub	sp, sp, #8
.LCFI56:
	str	r0, [sp, #4]
	str	r1, [sp]
	.loc 4 492 0
	ldr	r3, [sp, #4]
	ldr	r2, [sp]
	str	r2, [r3, #776]
	.loc 4 493 0
	nop
	add	sp, sp, #8
.LCFI57:
	@ sp needed
	bx	lr
.LFE177:
	.size	nrf_uarte_int_disable, .-nrf_uarte_int_disable
	.section	.text.nrf_uarte_errorsrc_get_and_clear,"ax",%progbits
	.align	1
	.syntax unified
	.thumb
	.thumb_func
	.fpu fpv4-sp-d16
	.type	nrf_uarte_errorsrc_get_and_clear, %function
nrf_uarte_errorsrc_get_and_clear:
.LFB178:
	.loc 4 496 0
	@ args = 0, pretend = 0, frame = 16
	@ frame_needed = 0, uses_anonymous_args = 0
	@ link register save eliminated.
	sub	sp, sp, #16
.LCFI58:
	str	r0, [sp, #4]
	.loc 4 497 0
	ldr	r3, [sp, #4]
	ldr	r3, [r3, #1152]
	str	r3, [sp, #12]
	.loc 4 498 0
	ldr	r3, [sp, #4]
	ldr	r2, [sp, #12]
	str	r2, [r3, #1152]
	.loc 4 499 0
	ldr	r3, [sp, #12]
	.loc 4 500 0
	mov	r0, r3
	add	sp, sp, #16
.LCFI59:
	@ sp needed
	bx	lr
.LFE178:
	.size	nrf_uarte_errorsrc_get_and_clear, .-nrf_uarte_errorsrc_get_and_clear
	.section	.text.nrf_uarte_enable,"ax",%progbits
	.align	1
	.syntax unified
	.thumb
	.thumb_func
	.fpu fpv4-sp-d16
	.type	nrf_uarte_enable, %function
nrf_uarte_enable:
.LFB179:
	.loc 4 503 0
	@ args = 0, pretend = 0, frame = 8
	@ frame_needed = 0, uses_anonymous_args = 0
	@ link register save eliminated.
	sub	sp, sp, #8
.LCFI60:
	str	r0, [sp, #4]
	.loc 4 504 0
	ldr	r3, [sp, #4]
	movs	r2, #8
	str	r2, [r3, #1280]
	.loc 4 505 0
	nop
	add	sp, sp, #8
.LCFI61:
	@ sp needed
	bx	lr
.LFE179:
	.size	nrf_uarte_enable, .-nrf_uarte_enable
	.section	.text.nrf_uarte_disable,"ax",%progbits
	.align	1
	.syntax unified
	.thumb
	.thumb_func
	.fpu fpv4-sp-d16
	.type	nrf_uarte_disable, %function
nrf_uarte_disable:
.LFB180:
	.loc 4 508 0
	@ args = 0, pretend = 0, frame = 8
	@ frame_needed = 0, uses_anonymous_args = 0
	@ link register save eliminated.
	sub	sp, sp, #8
.LCFI62:
	str	r0, [sp, #4]
	.loc 4 509 0
	ldr	r3, [sp, #4]
	movs	r2, #0
	str	r2, [r3, #1280]
	.loc 4 510 0
	nop
	add	sp, sp, #8
.LCFI63:
	@ sp needed
	bx	lr
.LFE180:
	.size	nrf_uarte_disable, .-nrf_uarte_disable
	.section	.text.nrf_uarte_txrx_pins_set,"ax",%progbits
	.align	1
	.syntax unified
	.thumb
	.thumb_func
	.fpu fpv4-sp-d16
	.type	nrf_uarte_txrx_pins_set, %function
nrf_uarte_txrx_pins_set:
.LFB181:
	.loc 4 513 0
	@ args = 0, pretend = 0, frame = 16
	@ frame_needed = 0, uses_anonymous_args = 0
	@ link register save eliminated.
	sub	sp, sp, #16
.LCFI64:
	str	r0, [sp, #12]
	str	r1, [sp, #8]
	str	r2, [sp, #4]
	.loc 4 514 0
	ldr	r3, [sp, #12]
	ldr	r2, [sp, #8]
	str	r2, [r3, #1292]
	.loc 4 515 0
	ldr	r3, [sp, #12]
	ldr	r2, [sp, #4]
	str	r2, [r3, #1300]
	.loc 4 516 0
	nop
	add	sp, sp, #16
.LCFI65:
	@ sp needed
	bx	lr
.LFE181:
	.size	nrf_uarte_txrx_pins_set, .-nrf_uarte_txrx_pins_set
	.section	.text.nrf_uarte_txrx_pins_disconnect,"ax",%progbits
	.align	1
	.syntax unified
	.thumb
	.thumb_func
	.fpu fpv4-sp-d16
	.type	nrf_uarte_txrx_pins_disconnect, %function
nrf_uarte_txrx_pins_disconnect:
.LFB182:
	.loc 4 519 0
	@ args = 0, pretend = 0, frame = 8
	@ frame_needed = 0, uses_anonymous_args = 0
	push	{lr}
.LCFI66:
	sub	sp, sp, #12
.LCFI67:
	str	r0, [sp, #4]
	.loc 4 520 0
	mov	r2, #-1
	mov	r1, #-1
	ldr	r0, [sp, #4]
	bl	nrf_uarte_txrx_pins_set
	.loc 4 521 0
	nop
	add	sp, sp, #12
.LCFI68:
	@ sp needed
	ldr	pc, [sp], #4
.LFE182:
	.size	nrf_uarte_txrx_pins_disconnect, .-nrf_uarte_txrx_pins_disconnect
	.section	.text.nrf_uarte_tx_pin_get,"ax",%progbits
	.align	1
	.syntax unified
	.thumb
	.thumb_func
	.fpu fpv4-sp-d16
	.type	nrf_uarte_tx_pin_get, %function
nrf_uarte_tx_pin_get:
.LFB183:
	.loc 4 524 0
	@ args = 0, pretend = 0, frame = 8
	@ frame_needed = 0, uses_anonymous_args = 0
	@ link register save eliminated.
	sub	sp, sp, #8
.LCFI69:
	str	r0, [sp, #4]
	.loc 4 525 0
	ldr	r3, [sp, #4]
	ldr	r3, [r3, #1292]
	.loc 4 526 0
	mov	r0, r3
	add	sp, sp, #8
.LCFI70:
	@ sp needed
	bx	lr
.LFE183:
	.size	nrf_uarte_tx_pin_get, .-nrf_uarte_tx_pin_get
	.section	.text.nrf_uarte_rx_pin_get,"ax",%progbits
	.align	1
	.syntax unified
	.thumb
	.thumb_func
	.fpu fpv4-sp-d16
	.type	nrf_uarte_rx_pin_get, %function
nrf_uarte_rx_pin_get:
.LFB184:
	.loc 4 529 0
	@ args = 0, pretend = 0, frame = 8
	@ frame_needed = 0, uses_anonymous_args = 0
	@ link register save eliminated.
	sub	sp, sp, #8
.LCFI71:
	str	r0, [sp, #4]
	.loc 4 530 0
	ldr	r3, [sp, #4]
	ldr	r3, [r3, #1300]
	.loc 4 531 0
	mov	r0, r3
	add	sp, sp, #8
.LCFI72:
	@ sp needed
	bx	lr
.LFE184:
	.size	nrf_uarte_rx_pin_get, .-nrf_uarte_rx_pin_get
	.section	.text.nrf_uarte_rts_pin_get,"ax",%progbits
	.align	1
	.syntax unified
	.thumb
	.thumb_func
	.fpu fpv4-sp-d16
	.type	nrf_uarte_rts_pin_get, %function
nrf_uarte_rts_pin_get:
.LFB185:
	.loc 4 534 0
	@ args = 0, pretend = 0, frame = 8
	@ frame_needed = 0, uses_anonymous_args = 0
	@ link register save eliminated.
	sub	sp, sp, #8
.LCFI73:
	str	r0, [sp, #4]
	.loc 4 535 0
	ldr	r3, [sp, #4]
	ldr	r3, [r3, #1288]
	.loc 4 536 0
	mov	r0, r3
	add	sp, sp, #8
.LCFI74:
	@ sp needed
	bx	lr
.LFE185:
	.size	nrf_uarte_rts_pin_get, .-nrf_uarte_rts_pin_get
	.section	.text.nrf_uarte_cts_pin_get,"ax",%progbits
	.align	1
	.syntax unified
	.thumb
	.thumb_func
	.fpu fpv4-sp-d16
	.type	nrf_uarte_cts_pin_get, %function
nrf_uarte_cts_pin_get:
.LFB186:
	.loc 4 539 0
	@ args = 0, pretend = 0, frame = 8
	@ frame_needed = 0, uses_anonymous_args = 0
	@ link register save eliminated.
	sub	sp, sp, #8
.LCFI75:
	str	r0, [sp, #4]
	.loc 4 540 0
	ldr	r3, [sp, #4]
	ldr	r3, [r3, #1296]
	.loc 4 541 0
	mov	r0, r3
	add	sp, sp, #8
.LCFI76:
	@ sp needed
	bx	lr
.LFE186:
	.size	nrf_uarte_cts_pin_get, .-nrf_uarte_cts_pin_get
	.section	.text.nrf_uarte_hwfc_pins_set,"ax",%progbits
	.align	1
	.syntax unified
	.thumb
	.thumb_func
	.fpu fpv4-sp-d16
	.type	nrf_uarte_hwfc_pins_set, %function
nrf_uarte_hwfc_pins_set:
.LFB187:
	.loc 4 544 0
	@ args = 0, pretend = 0, frame = 16
	@ frame_needed = 0, uses_anonymous_args = 0
	@ link register save eliminated.
	sub	sp, sp, #16
.LCFI77:
	str	r0, [sp, #12]
	str	r1, [sp, #8]
	str	r2, [sp, #4]
	.loc 4 545 0
	ldr	r3, [sp, #12]
	ldr	r2, [sp, #8]
	str	r2, [r3, #1288]
	.loc 4 546 0
	ldr	r3, [sp, #12]
	ldr	r2, [sp, #4]
	str	r2, [r3, #1296]
	.loc 4 547 0
	nop
	add	sp, sp, #16
.LCFI78:
	@ sp needed
	bx	lr
.LFE187:
	.size	nrf_uarte_hwfc_pins_set, .-nrf_uarte_hwfc_pins_set
	.section	.text.nrf_uarte_hwfc_pins_disconnect,"ax",%progbits
	.align	1
	.syntax unified
	.thumb
	.thumb_func
	.fpu fpv4-sp-d16
	.type	nrf_uarte_hwfc_pins_disconnect, %function
nrf_uarte_hwfc_pins_disconnect:
.LFB188:
	.loc 4 550 0
	@ args = 0, pretend = 0, frame = 8
	@ frame_needed = 0, uses_anonymous_args = 0
	push	{lr}
.LCFI79:
	sub	sp, sp, #12
.LCFI80:
	str	r0, [sp, #4]
	.loc 4 551 0
	mov	r2, #-1
	mov	r1, #-1
	ldr	r0, [sp, #4]
	bl	nrf_uarte_hwfc_pins_set
	.loc 4 552 0
	nop
	add	sp, sp, #12
.LCFI81:
	@ sp needed
	ldr	pc, [sp], #4
.LFE188:
	.size	nrf_uarte_hwfc_pins_disconnect, .-nrf_uarte_hwfc_pins_disconnect
	.section	.text.nrf_uarte_task_trigger,"ax",%progbits
	.align	1
	.syntax unified
	.thumb
	.thumb_func
	.fpu fpv4-sp-d16
	.type	nrf_uarte_task_trigger, %function
nrf_uarte_task_trigger:
.LFB189:
	.loc 4 555 0
	@ args = 0, pretend = 0, frame = 8
	@ frame_needed = 0, uses_anonymous_args = 0
	@ link register save eliminated.
	sub	sp, sp, #8
.LCFI82:
	str	r0, [sp, #4]
	mov	r3, r1
	strb	r3, [sp, #3]
	.loc 4 556 0
	ldrb	r3, [sp, #3]	@ zero_extendqisi2
	ldr	r2, [sp, #4]
	add	r3, r3, r2
	movs	r2, #1
	str	r2, [r3]
	.loc 4 557 0
	nop
	add	sp, sp, #8
.LCFI83:
	@ sp needed
	bx	lr
.LFE189:
	.size	nrf_uarte_task_trigger, .-nrf_uarte_task_trigger
	.section	.text.nrf_uarte_configure,"ax",%progbits
	.align	1
	.syntax unified
	.thumb
	.thumb_func
	.fpu fpv4-sp-d16
	.type	nrf_uarte_configure, %function
nrf_uarte_configure:
.LFB191:
	.loc 4 567 0
	@ args = 0, pretend = 0, frame = 8
	@ frame_needed = 0, uses_anonymous_args = 0
	@ link register save eliminated.
	sub	sp, sp, #8
.LCFI84:
	str	r0, [sp, #4]
	mov	r3, r1
	strb	r3, [sp, #3]
	mov	r3, r2
	strb	r3, [sp, #2]
	.loc 4 568 0
	ldrb	r2, [sp, #3]
	ldrb	r3, [sp, #2]
	orrs	r3, r3, r2
	uxtb	r3, r3
	mov	r2, r3
	ldr	r3, [sp, #4]
	str	r2, [r3, #1388]
	.loc 4 569 0
	nop
	add	sp, sp, #8
.LCFI85:
	@ sp needed
	bx	lr
.LFE191:
	.size	nrf_uarte_configure, .-nrf_uarte_configure
	.section	.text.nrf_uarte_baudrate_set,"ax",%progbits
	.align	1
	.syntax unified
	.thumb
	.thumb_func
	.fpu fpv4-sp-d16
	.type	nrf_uarte_baudrate_set, %function
nrf_uarte_baudrate_set:
.LFB192:
	.loc 4 572 0
	@ args = 0, pretend = 0, frame = 8
	@ frame_needed = 0, uses_anonymous_args = 0
	@ link register save eliminated.
	sub	sp, sp, #8
.LCFI86:
	str	r0, [sp, #4]
	str	r1, [sp]
	.loc 4 573 0
	ldr	r3, [sp, #4]
	ldr	r2, [sp]
	str	r2, [r3, #1316]
	.loc 4 574 0
	nop
	add	sp, sp, #8
.LCFI87:
	@ sp needed
	bx	lr
.LFE192:
	.size	nrf_uarte_baudrate_set, .-nrf_uarte_baudrate_set
	.section	.text.nrf_uarte_tx_buffer_set,"ax",%progbits
	.align	1
	.syntax unified
	.thumb
	.thumb_func
	.fpu fpv4-sp-d16
	.type	nrf_uarte_tx_buffer_set, %function
nrf_uarte_tx_buffer_set:
.LFB193:
	.loc 4 579 0
	@ args = 0, pretend = 0, frame = 16
	@ frame_needed = 0, uses_anonymous_args = 0
	@ link register save eliminated.
	sub	sp, sp, #16
.LCFI88:
	str	r0, [sp, #12]
	str	r1, [sp, #8]
	mov	r3, r2
	strb	r3, [sp, #7]
	.loc 4 580 0
	ldr	r2, [sp, #8]
	ldr	r3, [sp, #12]
	str	r2, [r3, #1348]
	.loc 4 581 0
	ldrb	r2, [sp, #7]	@ zero_extendqisi2
	ldr	r3, [sp, #12]
	str	r2, [r3, #1352]
	.loc 4 582 0
	nop
	add	sp, sp, #16
.LCFI89:
	@ sp needed
	bx	lr
.LFE193:
	.size	nrf_uarte_tx_buffer_set, .-nrf_uarte_tx_buffer_set
	.section	.text.nrf_uarte_tx_amount_get,"ax",%progbits
	.align	1
	.syntax unified
	.thumb
	.thumb_func
	.fpu fpv4-sp-d16
	.type	nrf_uarte_tx_amount_get, %function
nrf_uarte_tx_amount_get:
.LFB194:
	.loc 4 585 0
	@ args = 0, pretend = 0, frame = 8
	@ frame_needed = 0, uses_anonymous_args = 0
	@ link register save eliminated.
	sub	sp, sp, #8
.LCFI90:
	str	r0, [sp, #4]
	.loc 4 586 0
	ldr	r3, [sp, #4]
	ldr	r3, [r3, #1356]
	.loc 4 587 0
	mov	r0, r3
	add	sp, sp, #8
.LCFI91:
	@ sp needed
	bx	lr
.LFE194:
	.size	nrf_uarte_tx_amount_get, .-nrf_uarte_tx_amount_get
	.section	.text.nrf_uarte_rx_buffer_set,"ax",%progbits
	.align	1
	.syntax unified
	.thumb
	.thumb_func
	.fpu fpv4-sp-d16
	.type	nrf_uarte_rx_buffer_set, %function
nrf_uarte_rx_buffer_set:
.LFB195:
	.loc 4 592 0
	@ args = 0, pretend = 0, frame = 16
	@ frame_needed = 0, uses_anonymous_args = 0
	@ link register save eliminated.
	sub	sp, sp, #16
.LCFI92:
	str	r0, [sp, #12]
	str	r1, [sp, #8]
	mov	r3, r2
	strb	r3, [sp, #7]
	.loc 4 593 0
	ldr	r2, [sp, #8]
	ldr	r3, [sp, #12]
	str	r2, [r3, #1332]
	.loc 4 594 0
	ldrb	r2, [sp, #7]	@ zero_extendqisi2
	ldr	r3, [sp, #12]
	str	r2, [r3, #1336]
	.loc 4 595 0
	nop
	add	sp, sp, #16
.LCFI93:
	@ sp needed
	bx	lr
.LFE195:
	.size	nrf_uarte_rx_buffer_set, .-nrf_uarte_rx_buffer_set
	.section	.text.nrf_uarte_rx_amount_get,"ax",%progbits
	.align	1
	.syntax unified
	.thumb
	.thumb_func
	.fpu fpv4-sp-d16
	.type	nrf_uarte_rx_amount_get, %function
nrf_uarte_rx_amount_get:
.LFB196:
	.loc 4 598 0
	@ args = 0, pretend = 0, frame = 8
	@ frame_needed = 0, uses_anonymous_args = 0
	@ link register save eliminated.
	sub	sp, sp, #8
.LCFI94:
	str	r0, [sp, #4]
	.loc 4 599 0
	ldr	r3, [sp, #4]
	ldr	r3, [r3, #1340]
	.loc 4 600 0
	mov	r0, r3
	add	sp, sp, #8
.LCFI95:
	@ sp needed
	bx	lr
.LFE196:
	.size	nrf_uarte_rx_amount_get, .-nrf_uarte_rx_amount_get
	.section	.text.nrf_drv_common_irq_disable,"ax",%progbits
	.align	1
	.syntax unified
	.thumb
	.thumb_func
	.fpu fpv4-sp-d16
	.type	nrf_drv_common_irq_disable, %function
nrf_drv_common_irq_disable:
.LFB200:
	.file 5 "../../../nRF5_SDK_14.2.0/components/drivers_nrf/common/nrf_drv_common.h"
	.loc 5 302 0
	@ args = 0, pretend = 0, frame = 8
	@ frame_needed = 0, uses_anonymous_args = 0
	push	{lr}
.LCFI96:
	sub	sp, sp, #12
.LCFI97:
	mov	r3, r0
	strb	r3, [sp, #7]
	.loc 5 303 0
	ldrsb	r3, [sp, #7]
	mov	r0, r3
	bl	__NVIC_DisableIRQ
	.loc 5 304 0
	nop
	add	sp, sp, #12
.LCFI98:
	@ sp needed
	ldr	pc, [sp], #4
.LFE200:
	.size	nrf_drv_common_irq_disable, .-nrf_drv_common_irq_disable
	.section	.text.nrf_drv_get_IRQn,"ax",%progbits
	.align	1
	.syntax unified
	.thumb
	.thumb_func
	.fpu fpv4-sp-d16
	.type	nrf_drv_get_IRQn, %function
nrf_drv_get_IRQn:
.LFB203:
	.loc 5 317 0
	@ args = 0, pretend = 0, frame = 16
	@ frame_needed = 0, uses_anonymous_args = 0
	@ link register save eliminated.
	sub	sp, sp, #16
.LCFI99:
	str	r0, [sp, #4]
	.loc 5 318 0
	ldr	r3, [sp, #4]
	lsrs	r3, r3, #12
	strb	r3, [sp, #15]
	.loc 5 319 0
	ldrsb	r3, [sp, #15]
	.loc 5 320 0
	mov	r0, r3
	add	sp, sp, #16
.LCFI100:
	@ sp needed
	bx	lr
.LFE203:
	.size	nrf_drv_get_IRQn, .-nrf_drv_get_IRQn
	.section	.text.nrf_drv_is_in_RAM,"ax",%progbits
	.align	1
	.syntax unified
	.thumb
	.thumb_func
	.fpu fpv4-sp-d16
	.type	nrf_drv_is_in_RAM, %function
nrf_drv_is_in_RAM:
.LFB205:
	.loc 5 345 0
	@ args = 0, pretend = 0, frame = 8
	@ frame_needed = 0, uses_anonymous_args = 0
	@ link register save eliminated.
	sub	sp, sp, #8
.LCFI101:
	str	r0, [sp, #4]
	.loc 5 346 0
	ldr	r3, [sp, #4]
	and	r3, r3, #-536870912
	cmp	r3, #536870912
	ite	eq
	moveq	r3, #1
	movne	r3, #0
	uxtb	r3, r3
	.loc 5 347 0
	mov	r0, r3
	add	sp, sp, #8
.LCFI102:
	@ sp needed
	bx	lr
.LFE205:
	.size	nrf_drv_is_in_RAM, .-nrf_drv_is_in_RAM
	.section	.text.nrf_gpio_pin_port_decode,"ax",%progbits
	.align	1
	.syntax unified
	.thumb
	.thumb_func
	.fpu fpv4-sp-d16
	.type	nrf_gpio_pin_port_decode, %function
nrf_gpio_pin_port_decode:
.LFB206:
	.file 6 "../../../nRF5_SDK_14.2.0/components/drivers_nrf/hal/nrf_gpio.h"
	.loc 6 463 0
	@ args = 0, pretend = 0, frame = 8
	@ frame_needed = 0, uses_anonymous_args = 0
	@ link register save eliminated.
	sub	sp, sp, #8
.LCFI103:
	str	r0, [sp, #4]
	.loc 6 467 0
	mov	r3, #1342177280
	.loc 6 479 0
	mov	r0, r3
	add	sp, sp, #8
.LCFI104:
	@ sp needed
	bx	lr
.LFE206:
	.size	nrf_gpio_pin_port_decode, .-nrf_gpio_pin_port_decode
	.section	.text.nrf_gpio_cfg,"ax",%progbits
	.align	1
	.syntax unified
	.thumb
	.thumb_func
	.fpu fpv4-sp-d16
	.type	nrf_gpio_cfg, %function
nrf_gpio_cfg:
.LFB209:
	.loc 6 511 0
	@ args = 8, pretend = 0, frame = 16
	@ frame_needed = 0, uses_anonymous_args = 0
	push	{lr}
.LCFI105:
	sub	sp, sp, #20
.LCFI106:
	str	r0, [sp, #4]
	mov	r0, r1
	mov	r1, r2
	mov	r2, r3
	mov	r3, r0
	strb	r3, [sp, #3]
	mov	r3, r1
	strb	r3, [sp, #2]
	mov	r3, r2
	strb	r3, [sp, #1]
	.loc 6 512 0
	add	r3, sp, #4
	mov	r0, r3
	bl	nrf_gpio_pin_port_decode
	str	r0, [sp, #12]
	.loc 6 514 0
	ldrb	r2, [sp, #3]	@ zero_extendqisi2
	.loc 6 515 0
	ldrb	r3, [sp, #2]	@ zero_extendqisi2
	lsls	r3, r3, #1
	orrs	r2, r2, r3
	.loc 6 516 0
	ldrb	r3, [sp, #1]	@ zero_extendqisi2
	lsls	r3, r3, #2
	orrs	r2, r2, r3
	.loc 6 517 0
	ldrb	r3, [sp, #24]	@ zero_extendqisi2
	lsls	r3, r3, #8
	orr	r1, r2, r3
	.loc 6 518 0
	ldrb	r3, [sp, #28]	@ zero_extendqisi2
	lsls	r3, r3, #16
	.loc 6 514 0
	ldr	r2, [sp, #4]
	.loc 6 518 0
	orrs	r1, r1, r3
	.loc 6 514 0
	ldr	r3, [sp, #12]
	add	r2, r2, #448
	str	r1, [r3, r2, lsl #2]
	.loc 6 519 0
	nop
	add	sp, sp, #20
.LCFI107:
	@ sp needed
	ldr	pc, [sp], #4
.LFE209:
	.size	nrf_gpio_cfg, .-nrf_gpio_cfg
	.section	.text.nrf_gpio_cfg_output,"ax",%progbits
	.align	1
	.syntax unified
	.thumb
	.thumb_func
	.fpu fpv4-sp-d16
	.type	nrf_gpio_cfg_output, %function
nrf_gpio_cfg_output:
.LFB210:
	.loc 6 523 0
	@ args = 0, pretend = 0, frame = 8
	@ frame_needed = 0, uses_anonymous_args = 0
	push	{lr}
.LCFI108:
	sub	sp, sp, #20
.LCFI109:
	str	r0, [sp, #12]
	.loc 6 524 0
	movs	r3, #0
	str	r3, [sp, #4]
	movs	r3, #0
	str	r3, [sp]
	movs	r3, #0
	movs	r2, #1
	movs	r1, #1
	ldr	r0, [sp, #12]
	bl	nrf_gpio_cfg
	.loc 6 531 0
	nop
	add	sp, sp, #20
.LCFI110:
	@ sp needed
	ldr	pc, [sp], #4
.LFE210:
	.size	nrf_gpio_cfg_output, .-nrf_gpio_cfg_output
	.section	.text.nrf_gpio_cfg_input,"ax",%progbits
	.align	1
	.syntax unified
	.thumb
	.thumb_func
	.fpu fpv4-sp-d16
	.type	nrf_gpio_cfg_input, %function
nrf_gpio_cfg_input:
.LFB211:
	.loc 6 535 0
	@ args = 0, pretend = 0, frame = 8
	@ frame_needed = 0, uses_anonymous_args = 0
	push	{lr}
.LCFI111:
	sub	sp, sp, #20
.LCFI112:
	str	r0, [sp, #12]
	mov	r3, r1
	strb	r3, [sp, #11]
	.loc 6 536 0
	ldrb	r2, [sp, #11]	@ zero_extendqisi2
	movs	r3, #0
	str	r3, [sp, #4]
	movs	r3, #0
	str	r3, [sp]
	mov	r3, r2
	movs	r2, #0
	movs	r1, #0
	ldr	r0, [sp, #12]
	bl	nrf_gpio_cfg
	.loc 6 543 0
	nop
	add	sp, sp, #20
.LCFI113:
	@ sp needed
	ldr	pc, [sp], #4
.LFE211:
	.size	nrf_gpio_cfg_input, .-nrf_gpio_cfg_input
	.section	.text.nrf_gpio_cfg_default,"ax",%progbits
	.align	1
	.syntax unified
	.thumb
	.thumb_func
	.fpu fpv4-sp-d16
	.type	nrf_gpio_cfg_default, %function
nrf_gpio_cfg_default:
.LFB212:
	.loc 6 547 0
	@ args = 0, pretend = 0, frame = 8
	@ frame_needed = 0, uses_anonymous_args = 0
	push	{lr}
.LCFI114:
	sub	sp, sp, #20
.LCFI115:
	str	r0, [sp, #12]
	.loc 6 548 0
	movs	r3, #0
	str	r3, [sp, #4]
	movs	r3, #0
	str	r3, [sp]
	movs	r3, #0
	movs	r2, #1
	movs	r1, #0
	ldr	r0, [sp, #12]
	bl	nrf_gpio_cfg
	.loc 6 555 0
	nop
	add	sp, sp, #20
.LCFI116:
	@ sp needed
	ldr	pc, [sp], #4
.LFE212:
	.size	nrf_gpio_cfg_default, .-nrf_gpio_cfg_default
	.section	.text.nrf_gpio_pin_set,"ax",%progbits
	.align	1
	.syntax unified
	.thumb
	.thumb_func
	.fpu fpv4-sp-d16
	.type	nrf_gpio_pin_set, %function
nrf_gpio_pin_set:
.LFB218:
	.loc 6 623 0
	@ args = 0, pretend = 0, frame = 16
	@ frame_needed = 0, uses_anonymous_args = 0
	push	{lr}
.LCFI117:
	sub	sp, sp, #20
.LCFI118:
	str	r0, [sp, #4]
	.loc 6 624 0
	add	r3, sp, #4
	mov	r0, r3
	bl	nrf_gpio_pin_port_decode
	str	r0, [sp, #12]
	.loc 6 626 0
	ldr	r3, [sp, #4]
	movs	r2, #1
	lsl	r3, r2, r3
	mov	r1, r3
	ldr	r0, [sp, #12]
	bl	nrf_gpio_port_out_set
	.loc 6 627 0
	nop
	add	sp, sp, #20
.LCFI119:
	@ sp needed
	ldr	pc, [sp], #4
.LFE218:
	.size	nrf_gpio_pin_set, .-nrf_gpio_pin_set
	.section	.text.nrf_gpio_port_out_set,"ax",%progbits
	.align	1
	.syntax unified
	.thumb
	.thumb_func
	.fpu fpv4-sp-d16
	.type	nrf_gpio_port_out_set, %function
nrf_gpio_port_out_set:
.LFB232:
	.loc 6 729 0
	@ args = 0, pretend = 0, frame = 8
	@ frame_needed = 0, uses_anonymous_args = 0
	@ link register save eliminated.
	sub	sp, sp, #8
.LCFI120:
	str	r0, [sp, #4]
	str	r1, [sp]
	.loc 6 730 0
	ldr	r3, [sp, #4]
	ldr	r2, [sp]
	str	r2, [r3, #1288]
	.loc 6 731 0
	nop
	add	sp, sp, #8
.LCFI121:
	@ sp needed
	bx	lr
.LFE232:
	.size	nrf_gpio_port_out_set, .-nrf_gpio_port_out_set
	.section	.bss.m_cb,"aw",%nobits
	.align	2
	.type	m_cb, %object
	.size	m_cb, 32
m_cb:
	.space	32
	.section	.text.apply_config,"ax",%progbits
	.align	1
	.syntax unified
	.thumb
	.thumb_func
	.fpu fpv4-sp-d16
	.type	apply_config, %function
apply_config:
.LFB238:
	.file 7 "C:\\Users\\paulr\\OneDrive\\Documents\\DARPA\\darpasubt\\darpasubt\\firmware\\dwm1001_dev_source_code\\nRF5_SDK_14.2.0\\components\\drivers_nrf\\uart\\nrf_drv_uart.c"
	.loc 7 111 0
	@ args = 0, pretend = 0, frame = 8
	@ frame_needed = 0, uses_anonymous_args = 0
	push	{lr}
.LCFI122:
	sub	sp, sp, #12
.LCFI123:
	str	r0, [sp, #4]
	str	r1, [sp]
	.loc 7 112 0
	ldr	r3, [sp]
	ldr	r3, [r3]
	cmp	r3, #-1
	beq	.L81
	.loc 7 114 0
	ldr	r3, [sp]
	ldr	r3, [r3]
	mov	r0, r3
	bl	nrf_gpio_pin_set
	.loc 7 115 0
	ldr	r3, [sp]
	ldr	r3, [r3]
	mov	r0, r3
	bl	nrf_gpio_cfg_output
.L81:
	.loc 7 117 0
	ldr	r3, [sp]
	ldr	r3, [r3, #4]
	cmp	r3, #-1
	beq	.L82
	.loc 7 119 0
	ldr	r3, [sp]
	ldr	r3, [r3, #4]
	movs	r1, #0
	mov	r0, r3
	bl	nrf_gpio_cfg_input
.L82:
	.loc 7 122 0
	ldr	r3, [sp, #4]
	ldrb	r3, [r3, #4]	@ zero_extendqisi2
	ldr	r2, .L91
	lsls	r3, r3, #5
	add	r3, r3, r2
	adds	r3, r3, #28
	ldrb	r3, [r3]	@ zero_extendqisi2
	cmp	r3, #0
	beq	.L83
	.loc 7 122 0 is_stmt 0 discriminator 1
	ldr	r3, [sp, #4]
	ldr	r2, [r3]
	ldr	r3, [sp]
	ldr	r3, [r3, #24]
	mov	r1, r3
	mov	r0, r2
	bl	nrf_uarte_baudrate_set
	ldr	r3, [sp, #4]
	ldr	r0, [r3]
	ldr	r3, [sp]
	ldrb	r1, [r3, #21]	@ zero_extendqisi2
	ldr	r3, [sp]
	ldrb	r3, [r3, #20]	@ zero_extendqisi2
	mov	r2, r3
	bl	nrf_uarte_configure
	ldr	r3, [sp, #4]
	ldr	r0, [r3]
	ldr	r3, [sp]
	ldr	r1, [r3]
	ldr	r3, [sp]
	ldr	r3, [r3, #4]
	mov	r2, r3
	bl	nrf_uarte_txrx_pins_set
	ldr	r3, [sp]
	ldrb	r3, [r3, #20]	@ zero_extendqisi2
	cmp	r3, #1
	bne	.L90
	.loc 7 122 0 discriminator 2
	ldr	r3, [sp]
	ldr	r3, [r3, #8]
	cmp	r3, #-1
	beq	.L85
	.loc 7 122 0 discriminator 3
	ldr	r3, [sp]
	ldr	r3, [r3, #8]
	movs	r1, #0
	mov	r0, r3
	bl	nrf_gpio_cfg_input
.L85:
	.loc 7 122 0 discriminator 5
	ldr	r3, [sp]
	ldr	r3, [r3, #12]
	cmp	r3, #-1
	beq	.L86
	.loc 7 122 0 discriminator 6
	ldr	r3, [sp]
	ldr	r3, [r3, #12]
	mov	r0, r3
	bl	nrf_gpio_pin_set
	ldr	r3, [sp]
	ldr	r3, [r3, #12]
	mov	r0, r3
	bl	nrf_gpio_cfg_output
.L86:
	.loc 7 122 0 discriminator 8
	ldr	r3, [sp, #4]
	ldr	r0, [r3]
	ldr	r3, [sp]
	ldr	r1, [r3, #12]
	ldr	r3, [sp]
	ldr	r3, [r3, #8]
	mov	r2, r3
	bl	nrf_uarte_hwfc_pins_set
	.loc 7 161 0 is_stmt 1 discriminator 8
	b	.L90
.L83:
	.loc 7 142 0
	ldr	r3, [sp, #4]
	ldr	r2, [r3]
	ldr	r3, [sp]
	ldr	r3, [r3, #24]
	mov	r1, r3
	mov	r0, r2
	bl	nrf_uart_baudrate_set
	ldr	r3, [sp, #4]
	ldr	r0, [r3]
	ldr	r3, [sp]
	ldrb	r1, [r3, #21]	@ zero_extendqisi2
	ldr	r3, [sp]
	ldrb	r3, [r3, #20]	@ zero_extendqisi2
	mov	r2, r3
	bl	nrf_uart_configure
	ldr	r3, [sp, #4]
	ldr	r0, [r3]
	ldr	r3, [sp]
	ldr	r1, [r3]
	ldr	r3, [sp]
	ldr	r3, [r3, #4]
	mov	r2, r3
	bl	nrf_uart_txrx_pins_set
	ldr	r3, [sp]
	ldrb	r3, [r3, #20]	@ zero_extendqisi2
	cmp	r3, #1
	bne	.L90
	.loc 7 142 0 is_stmt 0 discriminator 1
	ldr	r3, [sp]
	ldr	r3, [r3, #8]
	cmp	r3, #-1
	beq	.L88
	.loc 7 142 0 discriminator 2
	ldr	r3, [sp]
	ldr	r3, [r3, #8]
	movs	r1, #0
	mov	r0, r3
	bl	nrf_gpio_cfg_input
.L88:
	.loc 7 142 0 discriminator 4
	ldr	r3, [sp]
	ldr	r3, [r3, #12]
	cmp	r3, #-1
	beq	.L89
	.loc 7 142 0 discriminator 5
	ldr	r3, [sp]
	ldr	r3, [r3, #12]
	mov	r0, r3
	bl	nrf_gpio_pin_set
	ldr	r3, [sp]
	ldr	r3, [r3, #12]
	mov	r0, r3
	bl	nrf_gpio_cfg_output
.L89:
	.loc 7 142 0 discriminator 7
	ldr	r3, [sp, #4]
	ldr	r0, [r3]
	ldr	r3, [sp]
	ldr	r1, [r3, #12]
	ldr	r3, [sp]
	ldr	r3, [r3, #8]
	mov	r2, r3
	bl	nrf_uart_hwfc_pins_set
.L90:
	.loc 7 161 0 is_stmt 1
	nop
	add	sp, sp, #12
.LCFI124:
	@ sp needed
	ldr	pc, [sp], #4
.L92:
	.align	2
.L91:
	.word	m_cb
.LFE238:
	.size	apply_config, .-apply_config
	.section	.text.interrupts_enable,"ax",%progbits
	.align	1
	.syntax unified
	.thumb
	.thumb_func
	.fpu fpv4-sp-d16
	.type	interrupts_enable, %function
interrupts_enable:
.LFB239:
	.loc 7 164 0
	@ args = 0, pretend = 0, frame = 8
	@ frame_needed = 0, uses_anonymous_args = 0
	push	{lr}
.LCFI125:
	sub	sp, sp, #12
.LCFI126:
	str	r0, [sp, #4]
	mov	r3, r1
	strb	r3, [sp, #3]
	.loc 7 165 0
	ldr	r3, [sp, #4]
	ldrb	r3, [r3, #4]	@ zero_extendqisi2
	ldr	r2, .L97
	lsls	r3, r3, #5
	add	r3, r3, r2
	adds	r3, r3, #28
	ldrb	r3, [r3]	@ zero_extendqisi2
	cmp	r3, #0
	beq	.L94
	.loc 7 165 0 is_stmt 0 discriminator 1
	ldr	r3, [sp, #4]
	ldr	r3, [r3]
	mov	r1, #272
	mov	r0, r3
	bl	nrf_uarte_event_clear
	ldr	r3, [sp, #4]
	ldr	r3, [r3]
	mov	r1, #288
	mov	r0, r3
	bl	nrf_uarte_event_clear
	ldr	r3, [sp, #4]
	ldr	r3, [r3]
	mov	r1, #292
	mov	r0, r3
	bl	nrf_uarte_event_clear
	ldr	r3, [sp, #4]
	ldr	r3, [r3]
	mov	r1, #324
	mov	r0, r3
	bl	nrf_uarte_event_clear
	ldr	r3, [sp, #4]
	ldr	r3, [r3]
	ldr	r1, .L97+4
	mov	r0, r3
	bl	nrf_uarte_int_enable
	ldr	r3, [sp, #4]
	ldr	r3, [r3]
	mov	r0, r3
	bl	nrf_drv_get_IRQn
	mov	r3, r0
	mov	r2, r3
	ldrb	r3, [sp, #3]	@ zero_extendqisi2
	mov	r1, r3
	mov	r0, r2
	bl	nrf_drv_common_irq_enable
	.loc 7 185 0 is_stmt 1 discriminator 1
	b	.L96
.L94:
	.loc 7 177 0
	ldr	r3, [sp, #4]
	ldr	r3, [r3]
	mov	r1, #284
	mov	r0, r3
	bl	nrf_uart_event_clear
	ldr	r3, [sp, #4]
	ldr	r3, [r3]
	mov	r1, #324
	mov	r0, r3
	bl	nrf_uart_event_clear
	ldr	r3, [sp, #4]
	ldr	r3, [r3]
	ldr	r1, .L97+8
	mov	r0, r3
	bl	nrf_uart_int_enable
	ldr	r3, [sp, #4]
	ldr	r3, [r3]
	mov	r0, r3
	bl	nrf_drv_get_IRQn
	mov	r3, r0
	mov	r2, r3
	ldrb	r3, [sp, #3]	@ zero_extendqisi2
	mov	r1, r3
	mov	r0, r2
	bl	nrf_drv_common_irq_enable
.L96:
	.loc 7 185 0
	nop
	add	sp, sp, #12
.LCFI127:
	@ sp needed
	ldr	pc, [sp], #4
.L98:
	.align	2
.L97:
	.word	m_cb
	.word	131856
	.word	131200
.LFE239:
	.size	interrupts_enable, .-interrupts_enable
	.section	.text.interrupts_disable,"ax",%progbits
	.align	1
	.syntax unified
	.thumb
	.thumb_func
	.fpu fpv4-sp-d16
	.type	interrupts_disable, %function
interrupts_disable:
.LFB240:
	.loc 7 188 0
	@ args = 0, pretend = 0, frame = 8
	@ frame_needed = 0, uses_anonymous_args = 0
	push	{lr}
.LCFI128:
	sub	sp, sp, #12
.LCFI129:
	str	r0, [sp, #4]
	.loc 7 189 0
	ldr	r3, [sp, #4]
	ldrb	r3, [r3, #4]	@ zero_extendqisi2
	ldr	r2, .L103
	lsls	r3, r3, #5
	add	r3, r3, r2
	adds	r3, r3, #28
	ldrb	r3, [r3]	@ zero_extendqisi2
	cmp	r3, #0
	beq	.L100
	.loc 7 189 0 is_stmt 0 discriminator 1
	ldr	r3, [sp, #4]
	ldr	r3, [r3]
	ldr	r1, .L103+4
	mov	r0, r3
	bl	nrf_uarte_int_disable
	ldr	r3, [sp, #4]
	ldr	r3, [r3]
	mov	r0, r3
	bl	nrf_drv_get_IRQn
	mov	r3, r0
	mov	r0, r3
	bl	nrf_drv_common_irq_disable
	.loc 7 206 0 is_stmt 1 discriminator 1
	b	.L102
.L100:
	.loc 7 197 0
	ldr	r3, [sp, #4]
	ldr	r3, [r3]
	ldr	r1, .L103+8
	mov	r0, r3
	bl	nrf_uart_int_disable
	ldr	r3, [sp, #4]
	ldr	r3, [r3]
	mov	r0, r3
	bl	nrf_drv_get_IRQn
	mov	r3, r0
	mov	r0, r3
	bl	nrf_drv_common_irq_disable
.L102:
	.loc 7 206 0
	nop
	add	sp, sp, #12
.LCFI130:
	@ sp needed
	ldr	pc, [sp], #4
.L104:
	.align	2
.L103:
	.word	m_cb
	.word	131856
	.word	131716
.LFE240:
	.size	interrupts_disable, .-interrupts_disable
	.section	.text.pins_to_default,"ax",%progbits
	.align	1
	.syntax unified
	.thumb
	.thumb_func
	.fpu fpv4-sp-d16
	.type	pins_to_default, %function
pins_to_default:
.LFB241:
	.loc 7 209 0
	@ args = 0, pretend = 0, frame = 24
	@ frame_needed = 0, uses_anonymous_args = 0
	push	{lr}
.LCFI131:
	sub	sp, sp, #28
.LCFI132:
	str	r0, [sp, #4]
	.loc 7 216 0
	ldr	r3, [sp, #4]
	ldrb	r3, [r3, #4]	@ zero_extendqisi2
	ldr	r2, .L113
	lsls	r3, r3, #5
	add	r3, r3, r2
	adds	r3, r3, #28
	ldrb	r3, [r3]	@ zero_extendqisi2
	cmp	r3, #0
	beq	.L106
	.loc 7 216 0 is_stmt 0 discriminator 1
	ldr	r3, [sp, #4]
	ldr	r3, [r3]
	mov	r0, r3
	bl	nrf_uarte_tx_pin_get
	str	r0, [sp, #20]
	ldr	r3, [sp, #4]
	ldr	r3, [r3]
	mov	r0, r3
	bl	nrf_uarte_rx_pin_get
	str	r0, [sp, #16]
	ldr	r3, [sp, #4]
	ldr	r3, [r3]
	mov	r0, r3
	bl	nrf_uarte_rts_pin_get
	str	r0, [sp, #12]
	ldr	r3, [sp, #4]
	ldr	r3, [r3]
	mov	r0, r3
	bl	nrf_uarte_cts_pin_get
	str	r0, [sp, #8]
	ldr	r3, [sp, #4]
	ldr	r3, [r3]
	mov	r0, r3
	bl	nrf_uarte_txrx_pins_disconnect
	ldr	r3, [sp, #4]
	ldr	r3, [r3]
	mov	r0, r3
	bl	nrf_uarte_hwfc_pins_disconnect
	b	.L107
.L106:
	.loc 7 225 0 is_stmt 1
	ldr	r3, [sp, #4]
	ldr	r3, [r3]
	mov	r0, r3
	bl	nrf_uart_tx_pin_get
	str	r0, [sp, #20]
	ldr	r3, [sp, #4]
	ldr	r3, [r3]
	mov	r0, r3
	bl	nrf_uart_rx_pin_get
	str	r0, [sp, #16]
	ldr	r3, [sp, #4]
	ldr	r3, [r3]
	mov	r0, r3
	bl	nrf_uart_rts_pin_get
	str	r0, [sp, #12]
	ldr	r3, [sp, #4]
	ldr	r3, [r3]
	mov	r0, r3
	bl	nrf_uart_cts_pin_get
	str	r0, [sp, #8]
	ldr	r3, [sp, #4]
	ldr	r3, [r3]
	mov	r0, r3
	bl	nrf_uart_txrx_pins_disconnect
	ldr	r3, [sp, #4]
	ldr	r3, [r3]
	mov	r0, r3
	bl	nrf_uart_hwfc_pins_disconnect
.L107:
	.loc 7 235 0
	ldr	r3, [sp, #20]
	cmp	r3, #-1
	beq	.L108
	.loc 7 237 0
	ldr	r0, [sp, #20]
	bl	nrf_gpio_cfg_default
.L108:
	.loc 7 240 0
	ldr	r3, [sp, #16]
	cmp	r3, #-1
	beq	.L109
	.loc 7 242 0
	ldr	r0, [sp, #16]
	bl	nrf_gpio_cfg_default
.L109:
	.loc 7 245 0
	ldr	r3, [sp, #8]
	cmp	r3, #-1
	beq	.L110
	.loc 7 247 0
	ldr	r0, [sp, #8]
	bl	nrf_gpio_cfg_default
.L110:
	.loc 7 250 0
	ldr	r3, [sp, #12]
	cmp	r3, #-1
	beq	.L112
	.loc 7 252 0
	ldr	r0, [sp, #12]
	bl	nrf_gpio_cfg_default
.L112:
	.loc 7 255 0
	nop
	add	sp, sp, #28
.LCFI133:
	@ sp needed
	ldr	pc, [sp], #4
.L114:
	.align	2
.L113:
	.word	m_cb
.LFE241:
	.size	pins_to_default, .-pins_to_default
	.section	.text.uart_enable,"ax",%progbits
	.align	1
	.syntax unified
	.thumb
	.thumb_func
	.fpu fpv4-sp-d16
	.type	uart_enable, %function
uart_enable:
.LFB242:
	.loc 7 258 0
	@ args = 0, pretend = 0, frame = 8
	@ frame_needed = 0, uses_anonymous_args = 0
	push	{lr}
.LCFI134:
	sub	sp, sp, #12
.LCFI135:
	str	r0, [sp, #4]
	.loc 7 259 0
	ldr	r3, [sp, #4]
	ldrb	r3, [r3, #4]	@ zero_extendqisi2
	ldr	r2, .L119
	lsls	r3, r3, #5
	add	r3, r3, r2
	adds	r3, r3, #28
	ldrb	r3, [r3]	@ zero_extendqisi2
	cmp	r3, #0
	beq	.L116
	.loc 7 259 0 is_stmt 0 discriminator 1
	ldr	r3, [sp, #4]
	ldr	r3, [r3]
	mov	r0, r3
	bl	nrf_uarte_enable
	.loc 7 261 0 is_stmt 1 discriminator 1
	b	.L118
.L116:
	.loc 7 260 0
	ldr	r3, [sp, #4]
	ldr	r3, [r3]
	mov	r0, r3
	bl	nrf_uart_enable
.L118:
	.loc 7 261 0
	nop
	add	sp, sp, #12
.LCFI136:
	@ sp needed
	ldr	pc, [sp], #4
.L120:
	.align	2
.L119:
	.word	m_cb
.LFE242:
	.size	uart_enable, .-uart_enable
	.section	.text.uart_disable,"ax",%progbits
	.align	1
	.syntax unified
	.thumb
	.thumb_func
	.fpu fpv4-sp-d16
	.type	uart_disable, %function
uart_disable:
.LFB243:
	.loc 7 264 0
	@ args = 0, pretend = 0, frame = 8
	@ frame_needed = 0, uses_anonymous_args = 0
	push	{lr}
.LCFI137:
	sub	sp, sp, #12
.LCFI138:
	str	r0, [sp, #4]
	.loc 7 265 0
	ldr	r3, [sp, #4]
	ldrb	r3, [r3, #4]	@ zero_extendqisi2
	ldr	r2, .L125
	lsls	r3, r3, #5
	add	r3, r3, r2
	adds	r3, r3, #28
	ldrb	r3, [r3]	@ zero_extendqisi2
	cmp	r3, #0
	beq	.L122
	.loc 7 265 0 is_stmt 0 discriminator 1
	ldr	r3, [sp, #4]
	ldr	r3, [r3]
	mov	r0, r3
	bl	nrf_uarte_disable
	.loc 7 267 0 is_stmt 1 discriminator 1
	b	.L124
.L122:
	.loc 7 266 0
	ldr	r3, [sp, #4]
	ldr	r3, [r3]
	mov	r0, r3
	bl	nrf_uart_disable
.L124:
	.loc 7 267 0
	nop
	add	sp, sp, #12
.LCFI139:
	@ sp needed
	ldr	pc, [sp], #4
.L126:
	.align	2
.L125:
	.word	m_cb
.LFE243:
	.size	uart_disable, .-uart_disable
	.section	.text.nrf_drv_uart_init,"ax",%progbits
	.align	1
	.global	nrf_drv_uart_init
	.syntax unified
	.thumb
	.thumb_func
	.fpu fpv4-sp-d16
	.type	nrf_drv_uart_init, %function
nrf_drv_uart_init:
.LFB244:
	.loc 7 271 0
	@ args = 0, pretend = 0, frame = 24
	@ frame_needed = 0, uses_anonymous_args = 0
	push	{lr}
.LCFI140:
	sub	sp, sp, #28
.LCFI141:
	str	r0, [sp, #12]
	str	r1, [sp, #8]
	str	r2, [sp, #4]
	.loc 7 273 0
	ldr	r3, [sp, #12]
	ldrb	r3, [r3, #4]	@ zero_extendqisi2
	lsls	r3, r3, #5
	ldr	r2, .L131
	add	r3, r3, r2
	str	r3, [sp, #20]
	.loc 7 274 0
	movs	r3, #0
	str	r3, [sp, #16]
	.loc 7 276 0
	ldr	r3, [sp, #20]
	ldrb	r3, [r3, #27]	@ zero_extendqisi2
	cmp	r3, #0
	beq	.L128
	.loc 7 278 0
	movs	r3, #8
	str	r3, [sp, #16]
	.loc 7 280 0
	ldr	r3, [sp, #16]
	b	.L129
.L128:
	.loc 7 284 0
	ldr	r3, [sp, #8]
	ldrb	r2, [r3, #29]	@ zero_extendqisi2
	ldr	r3, [sp, #20]
	strb	r2, [r3, #28]
	.loc 7 286 0
	ldr	r1, [sp, #8]
	ldr	r0, [sp, #12]
	bl	apply_config
	.loc 7 288 0
	ldr	r3, [sp, #20]
	ldr	r2, [sp, #4]
	str	r2, [r3, #4]
	.loc 7 289 0
	ldr	r3, [sp, #8]
	ldr	r2, [r3, #16]
	ldr	r3, [sp, #20]
	str	r2, [r3]
	.loc 7 291 0
	ldr	r3, [sp, #20]
	ldr	r3, [r3, #4]
	cmp	r3, #0
	beq	.L130
	.loc 7 293 0
	ldr	r3, [sp, #8]
	ldrb	r3, [r3, #28]	@ zero_extendqisi2
	mov	r1, r3
	ldr	r0, [sp, #12]
	bl	interrupts_enable
.L130:
	.loc 7 296 0
	ldr	r0, [sp, #12]
	bl	uart_enable
	.loc 7 297 0
	ldr	r3, [sp, #20]
	movs	r2, #0
	strb	r2, [r3, #23]
	.loc 7 298 0
	ldr	r3, [sp, #20]
	movs	r2, #0
	strb	r2, [r3, #24]
	.loc 7 299 0
	ldr	r3, [sp, #20]
	movs	r2, #0
	strb	r2, [r3, #22]
	.loc 7 300 0
	ldr	r3, [sp, #20]
	movs	r2, #1
	strb	r2, [r3, #27]
	.loc 7 301 0
	ldr	r3, [sp, #20]
	movs	r2, #0
	strb	r2, [r3, #26]
	.loc 7 302 0
	ldr	r3, [sp, #16]
.L129:
	.loc 7 303 0
	mov	r0, r3
	add	sp, sp, #28
.LCFI142:
	@ sp needed
	ldr	pc, [sp], #4
.L132:
	.align	2
.L131:
	.word	m_cb
.LFE244:
	.size	nrf_drv_uart_init, .-nrf_drv_uart_init
	.section	.text.nrf_drv_uart_uninit,"ax",%progbits
	.align	1
	.global	nrf_drv_uart_uninit
	.syntax unified
	.thumb
	.thumb_func
	.fpu fpv4-sp-d16
	.type	nrf_drv_uart_uninit, %function
nrf_drv_uart_uninit:
.LFB245:
	.loc 7 306 0
	@ args = 0, pretend = 0, frame = 16
	@ frame_needed = 0, uses_anonymous_args = 0
	push	{lr}
.LCFI143:
	sub	sp, sp, #20
.LCFI144:
	str	r0, [sp, #4]
	.loc 7 307 0
	ldr	r3, [sp, #4]
	ldrb	r3, [r3, #4]	@ zero_extendqisi2
	lsls	r3, r3, #5
	ldr	r2, .L135
	add	r3, r3, r2
	str	r3, [sp, #12]
	.loc 7 309 0
	ldr	r0, [sp, #4]
	bl	uart_disable
	.loc 7 311 0
	ldr	r3, [sp, #12]
	ldr	r3, [r3, #4]
	cmp	r3, #0
	beq	.L134
	.loc 7 313 0
	ldr	r0, [sp, #4]
	bl	interrupts_disable
.L134:
	.loc 7 316 0
	ldr	r0, [sp, #4]
	bl	pins_to_default
	.loc 7 318 0
	ldr	r3, [sp, #12]
	movs	r2, #0
	strb	r2, [r3, #27]
	.loc 7 319 0
	ldr	r3, [sp, #12]
	movs	r2, #0
	str	r2, [r3, #4]
	.loc 7 321 0
	nop
	add	sp, sp, #20
.LCFI145:
	@ sp needed
	ldr	pc, [sp], #4
.L136:
	.align	2
.L135:
	.word	m_cb
.LFE245:
	.size	nrf_drv_uart_uninit, .-nrf_drv_uart_uninit
	.section	.text.tx_byte,"ax",%progbits
	.align	1
	.syntax unified
	.thumb
	.thumb_func
	.fpu fpv4-sp-d16
	.type	tx_byte, %function
tx_byte:
.LFB246:
	.loc 7 325 0
	@ args = 0, pretend = 0, frame = 16
	@ frame_needed = 0, uses_anonymous_args = 0
	push	{lr}
.LCFI146:
	sub	sp, sp, #20
.LCFI147:
	str	r0, [sp, #4]
	str	r1, [sp]
	.loc 7 326 0
	mov	r1, #284
	ldr	r0, [sp, #4]
	bl	nrf_uart_event_clear
	.loc 7 327 0
	ldr	r3, [sp]
	ldr	r3, [r3, #8]
	ldr	r2, [sp]
	ldrh	r2, [r2, #20]	@ movhi
	uxth	r2, r2
	add	r3, r3, r2
	ldrb	r3, [r3]
	strb	r3, [sp, #15]
	.loc 7 328 0
	ldr	r3, [sp]
	ldrh	r3, [r3, #20]	@ movhi
	uxth	r3, r3
	adds	r3, r3, #1
	uxth	r2, r3
	ldr	r3, [sp]
	strh	r2, [r3, #20]	@ movhi
	.loc 7 329 0
	ldrb	r3, [sp, #15]	@ zero_extendqisi2
	mov	r1, r3
	ldr	r0, [sp, #4]
	bl	nrf_uart_txd_set
	.loc 7 330 0
	nop
	add	sp, sp, #20
.LCFI148:
	@ sp needed
	ldr	pc, [sp], #4
.LFE246:
	.size	tx_byte, .-tx_byte
	.section	.text.nrf_drv_uart_tx_for_uart,"ax",%progbits
	.align	1
	.syntax unified
	.thumb
	.thumb_func
	.fpu fpv4-sp-d16
	.type	nrf_drv_uart_tx_for_uart, %function
nrf_drv_uart_tx_for_uart:
.LFB247:
	.loc 7 333 0
	@ args = 0, pretend = 0, frame = 16
	@ frame_needed = 0, uses_anonymous_args = 0
	push	{lr}
.LCFI149:
	sub	sp, sp, #20
.LCFI150:
	str	r0, [sp, #4]
	.loc 7 334 0
	ldr	r3, [sp, #4]
	ldrb	r3, [r3, #4]	@ zero_extendqisi2
	lsls	r3, r3, #5
	ldr	r2, .L149
	add	r3, r3, r2
	str	r3, [sp, #8]
	.loc 7 335 0
	movs	r3, #0
	str	r3, [sp, #12]
	.loc 7 337 0
	ldr	r3, [sp, #4]
	ldr	r3, [r3]
	mov	r1, #284
	mov	r0, r3
	bl	nrf_uart_event_clear
	.loc 7 338 0
	ldr	r3, [sp, #4]
	ldr	r3, [r3]
	movs	r1, #8
	mov	r0, r3
	bl	nrf_uart_task_trigger
	.loc 7 340 0
	ldr	r3, [sp, #4]
	ldr	r3, [r3]
	ldr	r1, [sp, #8]
	mov	r0, r3
	bl	tx_byte
	.loc 7 342 0
	ldr	r3, [sp, #8]
	ldr	r3, [r3, #4]
	cmp	r3, #0
	bne	.L139
	.loc 7 344 0
	b	.L140
.L143:
	.loc 7 346 0
	nop
.L142:
	.loc 7 346 0 is_stmt 0 discriminator 2
	ldr	r3, [sp, #4]
	ldr	r3, [r3]
	mov	r1, #284
	mov	r0, r3
	bl	nrf_uart_event_check
	mov	r3, r0
	eor	r3, r3, #1
	uxtb	r3, r3
	cmp	r3, #0
	beq	.L141
	.loc 7 347 0 is_stmt 1 discriminator 1
	ldr	r3, [sp, #8]
	ldrh	r3, [r3, #20]	@ movhi
	uxth	r3, r3
	.loc 7 346 0 discriminator 1
	cmp	r3, #256
	bne	.L142
.L141:
	.loc 7 350 0
	ldr	r3, [sp, #8]
	ldrh	r3, [r3, #20]	@ movhi
	uxth	r3, r3
	cmp	r3, #256
	beq	.L140
	.loc 7 352 0
	ldr	r3, [sp, #4]
	ldr	r3, [r3]
	ldr	r1, [sp, #8]
	mov	r0, r3
	bl	tx_byte
.L140:
	.loc 7 344 0
	ldr	r3, [sp, #8]
	ldrh	r3, [r3, #20]	@ movhi
	uxth	r2, r3
	ldr	r3, [sp, #8]
	ldrb	r3, [r3, #22]	@ zero_extendqisi2
	uxth	r3, r3
	cmp	r2, r3
	bcc	.L143
	.loc 7 356 0
	ldr	r3, [sp, #8]
	ldrh	r3, [r3, #20]	@ movhi
	uxth	r3, r3
	cmp	r3, #256
	bne	.L148
	.loc 7 358 0
	movs	r3, #15
	str	r3, [sp, #12]
	b	.L145
.L148:
	.loc 7 362 0
	nop
.L146:
	.loc 7 362 0 is_stmt 0 discriminator 1
	ldr	r3, [sp, #4]
	ldr	r3, [r3]
	mov	r1, #284
	mov	r0, r3
	bl	nrf_uart_event_check
	mov	r3, r0
	eor	r3, r3, #1
	uxtb	r3, r3
	cmp	r3, #0
	bne	.L146
	.loc 7 365 0 is_stmt 1
	ldr	r3, [sp, #4]
	ldr	r3, [r3]
	movs	r1, #12
	mov	r0, r3
	bl	nrf_uart_task_trigger
.L145:
	.loc 7 367 0
	ldr	r3, [sp, #8]
	movs	r2, #0
	strb	r2, [r3, #22]
.L139:
	.loc 7 369 0
	ldr	r3, [sp, #12]
	.loc 7 370 0
	mov	r0, r3
	add	sp, sp, #20
.LCFI151:
	@ sp needed
	ldr	pc, [sp], #4
.L150:
	.align	2
.L149:
	.word	m_cb
.LFE247:
	.size	nrf_drv_uart_tx_for_uart, .-nrf_drv_uart_tx_for_uart
	.section	.text.nrf_drv_uart_tx_for_uarte,"ax",%progbits
	.align	1
	.syntax unified
	.thumb
	.thumb_func
	.fpu fpv4-sp-d16
	.type	nrf_drv_uart_tx_for_uarte, %function
nrf_drv_uart_tx_for_uarte:
.LFB248:
	.loc 7 375 0
	@ args = 0, pretend = 0, frame = 24
	@ frame_needed = 0, uses_anonymous_args = 0
	push	{lr}
.LCFI152:
	sub	sp, sp, #28
.LCFI153:
	str	r0, [sp, #4]
	.loc 7 376 0
	ldr	r3, [sp, #4]
	ldrb	r3, [r3, #4]	@ zero_extendqisi2
	lsls	r3, r3, #5
	ldr	r2, .L157
	add	r3, r3, r2
	str	r3, [sp, #16]
	.loc 7 377 0
	movs	r3, #0
	str	r3, [sp, #20]
	.loc 7 379 0
	ldr	r3, [sp, #4]
	ldr	r3, [r3]
	mov	r1, #288
	mov	r0, r3
	bl	nrf_uarte_event_clear
	.loc 7 380 0
	ldr	r3, [sp, #4]
	ldr	r3, [r3]
	mov	r1, #344
	mov	r0, r3
	bl	nrf_uarte_event_clear
	.loc 7 381 0
	ldr	r3, [sp, #4]
	ldr	r0, [r3]
	ldr	r3, [sp, #16]
	ldr	r1, [r3, #8]
	ldr	r3, [sp, #16]
	ldrb	r3, [r3, #22]	@ zero_extendqisi2
	mov	r2, r3
	bl	nrf_uarte_tx_buffer_set
	.loc 7 382 0
	ldr	r3, [sp, #4]
	ldr	r3, [r3]
	movs	r1, #8
	mov	r0, r3
	bl	nrf_uarte_task_trigger
	.loc 7 384 0
	ldr	r3, [sp, #16]
	ldr	r3, [r3, #4]
	cmp	r3, #0
	bne	.L152
.L154:
.LBB10:
	.loc 7 390 0 discriminator 2
	ldr	r3, [sp, #4]
	ldr	r3, [r3]
	mov	r1, #288
	mov	r0, r3
	bl	nrf_uarte_event_check
	mov	r3, r0
	strb	r3, [sp, #15]
	.loc 7 391 0 discriminator 2
	ldr	r3, [sp, #4]
	ldr	r3, [r3]
	mov	r1, #344
	mov	r0, r3
	bl	nrf_uarte_event_check
	mov	r3, r0
	strb	r3, [sp, #14]
	.loc 7 393 0 discriminator 2
	ldrb	r3, [sp, #15]
	eor	r3, r3, #1
	uxtb	r3, r3
	cmp	r3, #0
	beq	.L153
	.loc 7 393 0 is_stmt 0 discriminator 1
	ldrb	r3, [sp, #14]
	eor	r3, r3, #1
	uxtb	r3, r3
	cmp	r3, #0
	bne	.L154
.L153:
	.loc 7 395 0 is_stmt 1
	ldrb	r3, [sp, #14]	@ zero_extendqisi2
	cmp	r3, #0
	beq	.L155
	.loc 7 397 0
	movs	r3, #15
	str	r3, [sp, #20]
.L155:
	.loc 7 399 0
	ldr	r3, [sp, #16]
	movs	r2, #0
	strb	r2, [r3, #22]
.L152:
.LBE10:
	.loc 7 401 0
	ldr	r3, [sp, #20]
	.loc 7 402 0
	mov	r0, r3
	add	sp, sp, #28
.LCFI154:
	@ sp needed
	ldr	pc, [sp], #4
.L158:
	.align	2
.L157:
	.word	m_cb
.LFE248:
	.size	nrf_drv_uart_tx_for_uarte, .-nrf_drv_uart_tx_for_uarte
	.section	.text.nrf_drv_uart_tx,"ax",%progbits
	.align	1
	.global	nrf_drv_uart_tx
	.syntax unified
	.thumb
	.thumb_func
	.fpu fpv4-sp-d16
	.type	nrf_drv_uart_tx, %function
nrf_drv_uart_tx:
.LFB249:
	.loc 7 406 0
	@ args = 0, pretend = 0, frame = 24
	@ frame_needed = 0, uses_anonymous_args = 0
	push	{lr}
.LCFI155:
	sub	sp, sp, #28
.LCFI156:
	str	r0, [sp, #12]
	str	r1, [sp, #8]
	mov	r3, r2
	strb	r3, [sp, #7]
	.loc 7 407 0
	ldr	r3, [sp, #12]
	ldrb	r3, [r3, #4]	@ zero_extendqisi2
	lsls	r3, r3, #5
	ldr	r2, .L164
	add	r3, r3, r2
	str	r3, [sp, #20]
	.loc 7 414 0
	ldr	r3, [sp, #12]
	ldrb	r3, [r3, #4]	@ zero_extendqisi2
	ldr	r2, .L164
	lsls	r3, r3, #5
	add	r3, r3, r2
	adds	r3, r3, #28
	ldrb	r3, [r3]	@ zero_extendqisi2
	cmp	r3, #0
	beq	.L160
	.loc 7 414 0 is_stmt 0 discriminator 1
	ldr	r0, [sp, #8]
	bl	nrf_drv_is_in_RAM
	mov	r3, r0
	eor	r3, r3, #1
	uxtb	r3, r3
	cmp	r3, #0
	beq	.L160
	.loc 7 414 0 discriminator 2
	movs	r3, #16
	str	r3, [sp, #16]
	ldr	r3, [sp, #16]
	b	.L161
.L160:
	.loc 7 427 0 is_stmt 1
	ldr	r0, [sp, #12]
	bl	nrf_drv_uart_tx_in_progress
	mov	r3, r0
	cmp	r3, #0
	beq	.L162
	.loc 7 429 0
	movs	r3, #17
	str	r3, [sp, #16]
	.loc 7 431 0
	ldr	r3, [sp, #16]
	b	.L161
.L162:
	.loc 7 433 0
	ldr	r3, [sp, #20]
	ldrb	r2, [sp, #7]
	strb	r2, [r3, #22]
	.loc 7 434 0
	ldr	r3, [sp, #20]
	ldr	r2, [sp, #8]
	str	r2, [r3, #8]
	.loc 7 435 0
	ldr	r3, [sp, #20]
	movs	r2, #0
	strh	r2, [r3, #20]	@ movhi
	.loc 7 444 0
	ldr	r3, [sp, #12]
	ldrb	r3, [r3, #4]	@ zero_extendqisi2
	ldr	r2, .L164
	lsls	r3, r3, #5
	add	r3, r3, r2
	adds	r3, r3, #28
	ldrb	r3, [r3]	@ zero_extendqisi2
	cmp	r3, #0
	beq	.L163
	.loc 7 444 0 is_stmt 0 discriminator 1
	ldr	r0, [sp, #12]
	bl	nrf_drv_uart_tx_for_uarte
	mov	r3, r0
	b	.L161
.L163:
	.loc 7 448 0 is_stmt 1
	ldr	r0, [sp, #12]
	bl	nrf_drv_uart_tx_for_uart
	mov	r3, r0
.L161:
	.loc 7 452 0
	mov	r0, r3
	add	sp, sp, #28
.LCFI157:
	@ sp needed
	ldr	pc, [sp], #4
.L165:
	.align	2
.L164:
	.word	m_cb
.LFE249:
	.size	nrf_drv_uart_tx, .-nrf_drv_uart_tx
	.section	.text.nrf_drv_uart_tx_in_progress,"ax",%progbits
	.align	1
	.global	nrf_drv_uart_tx_in_progress
	.syntax unified
	.thumb
	.thumb_func
	.fpu fpv4-sp-d16
	.type	nrf_drv_uart_tx_in_progress, %function
nrf_drv_uart_tx_in_progress:
.LFB250:
	.loc 7 455 0
	@ args = 0, pretend = 0, frame = 8
	@ frame_needed = 0, uses_anonymous_args = 0
	@ link register save eliminated.
	sub	sp, sp, #8
.LCFI158:
	str	r0, [sp, #4]
	.loc 7 456 0
	ldr	r3, [sp, #4]
	ldrb	r3, [r3, #4]	@ zero_extendqisi2
	ldr	r2, .L168
	lsls	r3, r3, #5
	add	r3, r3, r2
	adds	r3, r3, #22
	ldrb	r3, [r3]	@ zero_extendqisi2
	cmp	r3, #0
	ite	ne
	movne	r3, #1
	moveq	r3, #0
	uxtb	r3, r3
	.loc 7 457 0
	mov	r0, r3
	add	sp, sp, #8
.LCFI159:
	@ sp needed
	bx	lr
.L169:
	.align	2
.L168:
	.word	m_cb
.LFE250:
	.size	nrf_drv_uart_tx_in_progress, .-nrf_drv_uart_tx_in_progress
	.section	.text.rx_enable,"ax",%progbits
	.align	1
	.syntax unified
	.thumb
	.thumb_func
	.fpu fpv4-sp-d16
	.type	rx_enable, %function
rx_enable:
.LFB251:
	.loc 7 461 0
	@ args = 0, pretend = 0, frame = 8
	@ frame_needed = 0, uses_anonymous_args = 0
	push	{lr}
.LCFI160:
	sub	sp, sp, #12
.LCFI161:
	str	r0, [sp, #4]
	.loc 7 462 0
	ldr	r3, [sp, #4]
	ldr	r3, [r3]
	mov	r1, #292
	mov	r0, r3
	bl	nrf_uart_event_clear
	.loc 7 463 0
	ldr	r3, [sp, #4]
	ldr	r3, [r3]
	mov	r1, #264
	mov	r0, r3
	bl	nrf_uart_event_clear
	.loc 7 464 0
	ldr	r3, [sp, #4]
	ldr	r3, [r3]
	movs	r1, #0
	mov	r0, r3
	bl	nrf_uart_task_trigger
	.loc 7 465 0
	nop
	add	sp, sp, #12
.LCFI162:
	@ sp needed
	ldr	pc, [sp], #4
.LFE251:
	.size	rx_enable, .-rx_enable
	.section	.text.rx_byte,"ax",%progbits
	.align	1
	.syntax unified
	.thumb
	.thumb_func
	.fpu fpv4-sp-d16
	.type	rx_byte, %function
rx_byte:
.LFB252:
	.loc 7 468 0
	@ args = 0, pretend = 0, frame = 8
	@ frame_needed = 0, uses_anonymous_args = 0
	push	{r4, lr}
.LCFI163:
	sub	sp, sp, #8
.LCFI164:
	str	r0, [sp, #4]
	str	r1, [sp]
	.loc 7 469 0
	ldr	r3, [sp]
	ldrb	r3, [r3, #23]	@ zero_extendqisi2
	cmp	r3, #0
	bne	.L172
	.loc 7 471 0
	mov	r1, #264
	ldr	r0, [sp, #4]
	bl	nrf_uart_event_clear
	.loc 7 473 0
	ldr	r0, [sp, #4]
	bl	nrf_uart_rxd_get
	.loc 7 474 0
	b	.L171
.L172:
	.loc 7 476 0
	mov	r1, #264
	ldr	r0, [sp, #4]
	bl	nrf_uart_event_clear
	.loc 7 477 0
	ldr	r3, [sp]
	ldr	r3, [r3, #12]
	ldr	r2, [sp]
	ldrb	r2, [r2, #25]
	uxtb	r2, r2
	adds	r4, r3, r2
	ldr	r0, [sp, #4]
	bl	nrf_uart_rxd_get
	mov	r3, r0
	strb	r3, [r4]
	.loc 7 478 0
	ldr	r3, [sp]
	ldrb	r3, [r3, #25]
	uxtb	r3, r3
	adds	r3, r3, #1
	uxtb	r2, r3
	ldr	r3, [sp]
	strb	r2, [r3, #25]
.L171:
	.loc 7 479 0
	add	sp, sp, #8
.LCFI165:
	@ sp needed
	pop	{r4, pc}
.LFE252:
	.size	rx_byte, .-rx_byte
	.section	.text.nrf_drv_uart_rx_for_uart,"ax",%progbits
	.align	1
	.syntax unified
	.thumb
	.thumb_func
	.fpu fpv4-sp-d16
	.type	nrf_drv_uart_rx_for_uart, %function
nrf_drv_uart_rx_for_uart:
.LFB253:
	.loc 7 482 0
	@ args = 0, pretend = 0, frame = 32
	@ frame_needed = 0, uses_anonymous_args = 0
	push	{lr}
.LCFI166:
	sub	sp, sp, #36
.LCFI167:
	str	r0, [sp, #12]
	str	r1, [sp, #8]
	mov	r1, r2
	mov	r2, r3
	mov	r3, r1
	strb	r3, [sp, #7]
	mov	r3, r2
	strb	r3, [sp, #6]
	.loc 7 485 0
	ldr	r3, [sp, #12]
	ldrb	r3, [r3, #4]	@ zero_extendqisi2
	lsls	r3, r3, #5
	ldr	r2, .L186
	add	r3, r3, r2
	str	r3, [sp, #28]
	.loc 7 487 0
	ldr	r3, [sp, #28]
	ldrb	r3, [r3, #26]	@ zero_extendqisi2
	eor	r3, r3, #1
	uxtb	r3, r3
	cmp	r3, #0
	beq	.L175
	.loc 7 487 0 is_stmt 0 discriminator 1
	ldrb	r3, [sp, #6]
	eor	r3, r3, #1
	uxtb	r3, r3
	cmp	r3, #0
	beq	.L175
	.loc 7 489 0 is_stmt 1
	ldr	r0, [sp, #12]
	bl	rx_enable
.L175:
	.loc 7 492 0
	ldr	r3, [sp, #28]
	ldr	r3, [r3, #4]
	cmp	r3, #0
	bne	.L176
.LBB11:
	.loc 7 494 0
	ldr	r3, [sp, #12]
	ldr	r3, [r3]
	mov	r1, #324
	mov	r0, r3
	bl	nrf_uart_event_clear
.L178:
	.loc 7 503 0 discriminator 3
	ldr	r3, [sp, #12]
	ldr	r3, [r3]
	mov	r1, #292
	mov	r0, r3
	bl	nrf_uart_event_check
	mov	r3, r0
	strb	r3, [sp, #27]
	.loc 7 504 0 discriminator 3
	ldr	r3, [sp, #12]
	ldr	r3, [r3]
	mov	r1, #264
	mov	r0, r3
	bl	nrf_uart_event_check
	mov	r3, r0
	strb	r3, [sp, #26]
	.loc 7 505 0 discriminator 3
	ldr	r3, [sp, #12]
	ldr	r3, [r3]
	mov	r1, #324
	mov	r0, r3
	bl	nrf_uart_event_check
	mov	r3, r0
	strb	r3, [sp, #25]
	.loc 7 506 0 discriminator 3
	ldrb	r3, [sp, #26]
	eor	r3, r3, #1
	uxtb	r3, r3
	cmp	r3, #0
	beq	.L177
	.loc 7 506 0 is_stmt 0 discriminator 1
	ldrb	r3, [sp, #25]
	eor	r3, r3, #1
	uxtb	r3, r3
	cmp	r3, #0
	beq	.L177
	.loc 7 506 0 discriminator 2
	ldrb	r3, [sp, #27]
	eor	r3, r3, #1
	uxtb	r3, r3
	cmp	r3, #0
	bne	.L178
.L177:
	.loc 7 508 0 is_stmt 1
	ldrb	r3, [sp, #27]	@ zero_extendqisi2
	cmp	r3, #0
	bne	.L179
	.loc 7 508 0 is_stmt 0 discriminator 1
	ldrb	r3, [sp, #25]	@ zero_extendqisi2
	cmp	r3, #0
	bne	.L179
	.loc 7 512 0 is_stmt 1
	ldr	r3, [sp, #12]
	ldr	r3, [r3]
	ldr	r1, [sp, #28]
	mov	r0, r3
	bl	rx_byte
	.loc 7 513 0
	ldr	r3, [sp, #28]
	ldrb	r2, [r3, #23]	@ zero_extendqisi2
	ldr	r3, [sp, #28]
	ldrb	r3, [r3, #25]
	uxtb	r3, r3
	cmp	r2, r3
	bhi	.L178
.L179:
	.loc 7 515 0
	ldr	r3, [sp, #28]
	movs	r2, #0
	strb	r2, [r3, #23]
	.loc 7 516 0
	ldrb	r3, [sp, #27]	@ zero_extendqisi2
	cmp	r3, #0
	beq	.L180
	.loc 7 518 0
	movs	r3, #3
	str	r3, [sp, #20]
	.loc 7 520 0
	ldr	r3, [sp, #20]
	b	.L181
.L180:
	.loc 7 523 0
	ldrb	r3, [sp, #25]	@ zero_extendqisi2
	cmp	r3, #0
	beq	.L182
	.loc 7 526 0
	movs	r3, #15
	str	r3, [sp, #20]
	.loc 7 527 0
	ldr	r3, [sp, #20]
	b	.L181
.L182:
	.loc 7 530 0
	ldr	r3, [sp, #28]
	ldrb	r3, [r3, #26]	@ zero_extendqisi2
	cmp	r3, #0
	beq	.L183
	.loc 7 532 0
	ldr	r3, [sp, #12]
	ldr	r3, [r3]
	movs	r1, #0
	mov	r0, r3
	bl	nrf_uart_task_trigger
	b	.L185
.L183:
	.loc 7 537 0
	ldr	r3, [sp, #12]
	ldr	r3, [r3]
	movs	r1, #4
	mov	r0, r3
	bl	nrf_uart_task_trigger
	b	.L185
.L176:
.LBE11:
	.loc 7 542 0
	ldr	r3, [sp, #12]
	ldr	r3, [r3]
	mov	r1, #516
	mov	r0, r3
	bl	nrf_uart_int_enable
.L185:
	.loc 7 544 0
	movs	r3, #0
	str	r3, [sp, #20]
	.loc 7 545 0
	ldr	r3, [sp, #20]
.L181:
	.loc 7 546 0
	mov	r0, r3
	add	sp, sp, #36
.LCFI168:
	@ sp needed
	ldr	pc, [sp], #4
.L187:
	.align	2
.L186:
	.word	m_cb
.LFE253:
	.size	nrf_drv_uart_rx_for_uart, .-nrf_drv_uart_rx_for_uart
	.section	.text.nrf_drv_uart_rx_for_uarte,"ax",%progbits
	.align	1
	.syntax unified
	.thumb
	.thumb_func
	.fpu fpv4-sp-d16
	.type	nrf_drv_uart_rx_for_uarte, %function
nrf_drv_uart_rx_for_uarte:
.LFB254:
	.loc 7 551 0
	@ args = 0, pretend = 0, frame = 24
	@ frame_needed = 0, uses_anonymous_args = 0
	push	{lr}
.LCFI169:
	sub	sp, sp, #28
.LCFI170:
	str	r0, [sp, #12]
	str	r1, [sp, #8]
	mov	r1, r2
	mov	r2, r3
	mov	r3, r1
	strb	r3, [sp, #7]
	mov	r3, r2
	strb	r3, [sp, #6]
	.loc 7 552 0
	movs	r3, #0
	str	r3, [sp, #20]
	.loc 7 553 0
	ldr	r3, [sp, #12]
	ldr	r3, [r3]
	mov	r1, #272
	mov	r0, r3
	bl	nrf_uarte_event_clear
	.loc 7 554 0
	ldr	r3, [sp, #12]
	ldr	r3, [r3]
	mov	r1, #324
	mov	r0, r3
	bl	nrf_uarte_event_clear
	.loc 7 555 0
	ldr	r3, [sp, #12]
	ldr	r3, [r3]
	ldrb	r2, [sp, #7]	@ zero_extendqisi2
	ldr	r1, [sp, #8]
	mov	r0, r3
	bl	nrf_uarte_rx_buffer_set
	.loc 7 556 0
	ldrb	r3, [sp, #6]
	eor	r3, r3, #1
	uxtb	r3, r3
	cmp	r3, #0
	beq	.L189
	.loc 7 558 0
	ldr	r3, [sp, #12]
	ldr	r3, [r3]
	movs	r1, #0
	mov	r0, r3
	bl	nrf_uarte_task_trigger
	b	.L190
.L189:
	.loc 7 562 0
	ldr	r3, [sp, #12]
	ldr	r3, [r3]
	movs	r1, #32
	mov	r0, r3
	bl	nrf_uarte_shorts_enable
.L190:
	.loc 7 565 0
	ldr	r3, [sp, #12]
	ldrb	r3, [r3, #4]	@ zero_extendqisi2
	ldr	r2, .L198
	lsls	r3, r3, #5
	add	r3, r3, r2
	adds	r3, r3, #4
	ldr	r3, [r3]
	cmp	r3, #0
	bne	.L191
.L193:
.LBB12:
	.loc 7 571 0 discriminator 3
	ldr	r3, [sp, #12]
	ldr	r3, [r3]
	mov	r1, #272
	mov	r0, r3
	bl	nrf_uarte_event_check
	mov	r3, r0
	strb	r3, [sp, #19]
	.loc 7 572 0 discriminator 3
	ldr	r3, [sp, #12]
	ldr	r3, [r3]
	mov	r1, #324
	mov	r0, r3
	bl	nrf_uarte_event_check
	mov	r3, r0
	strb	r3, [sp, #18]
	.loc 7 573 0 discriminator 3
	ldr	r3, [sp, #12]
	ldr	r3, [r3]
	mov	r1, #292
	mov	r0, r3
	bl	nrf_uarte_event_check
	mov	r3, r0
	strb	r3, [sp, #17]
	.loc 7 574 0 discriminator 3
	ldrb	r3, [sp, #19]
	eor	r3, r3, #1
	uxtb	r3, r3
	cmp	r3, #0
	beq	.L192
	.loc 7 574 0 is_stmt 0 discriminator 1
	ldrb	r3, [sp, #18]
	eor	r3, r3, #1
	uxtb	r3, r3
	cmp	r3, #0
	beq	.L192
	.loc 7 574 0 discriminator 2
	ldrb	r3, [sp, #17]
	eor	r3, r3, #1
	uxtb	r3, r3
	cmp	r3, #0
	bne	.L193
.L192:
	.loc 7 576 0 is_stmt 1
	ldr	r3, [sp, #12]
	ldrb	r3, [r3, #4]	@ zero_extendqisi2
	ldr	r2, .L198
	lsls	r3, r3, #5
	add	r3, r3, r2
	adds	r3, r3, #23
	movs	r2, #0
	strb	r2, [r3]
	.loc 7 578 0
	ldrb	r3, [sp, #17]	@ zero_extendqisi2
	cmp	r3, #0
	beq	.L194
	.loc 7 580 0
	movs	r3, #3
	str	r3, [sp, #20]
.L194:
	.loc 7 583 0
	ldrb	r3, [sp, #18]	@ zero_extendqisi2
	cmp	r3, #0
	beq	.L196
	.loc 7 585 0
	movs	r3, #15
	str	r3, [sp, #20]
	b	.L196
.L191:
.LBE12:
	.loc 7 590 0
	ldr	r3, [sp, #12]
	ldr	r3, [r3]
	mov	r1, #528
	mov	r0, r3
	bl	nrf_uarte_int_enable
.L196:
	.loc 7 592 0
	ldr	r3, [sp, #20]
	.loc 7 593 0
	mov	r0, r3
	add	sp, sp, #28
.LCFI171:
	@ sp needed
	ldr	pc, [sp], #4
.L199:
	.align	2
.L198:
	.word	m_cb
.LFE254:
	.size	nrf_drv_uart_rx_for_uarte, .-nrf_drv_uart_rx_for_uarte
	.section	.text.nrf_drv_uart_rx,"ax",%progbits
	.align	1
	.global	nrf_drv_uart_rx
	.syntax unified
	.thumb
	.thumb_func
	.fpu fpv4-sp-d16
	.type	nrf_drv_uart_rx, %function
nrf_drv_uart_rx:
.LFB255:
	.loc 7 597 0
	@ args = 0, pretend = 0, frame = 32
	@ frame_needed = 0, uses_anonymous_args = 0
	push	{lr}
.LCFI172:
	sub	sp, sp, #36
.LCFI173:
	str	r0, [sp, #12]
	str	r1, [sp, #8]
	mov	r3, r2
	strb	r3, [sp, #7]
	.loc 7 598 0
	ldr	r3, [sp, #12]
	ldrb	r3, [r3, #4]	@ zero_extendqisi2
	lsls	r3, r3, #5
	ldr	r2, .L213
	add	r3, r3, r2
	str	r3, [sp, #24]
	.loc 7 605 0
	ldr	r3, [sp, #12]
	ldrb	r3, [r3, #4]	@ zero_extendqisi2
	ldr	r2, .L213
	lsls	r3, r3, #5
	add	r3, r3, r2
	adds	r3, r3, #28
	ldrb	r3, [r3]	@ zero_extendqisi2
	cmp	r3, #0
	beq	.L201
	.loc 7 605 0 is_stmt 0 discriminator 1
	ldr	r0, [sp, #8]
	bl	nrf_drv_is_in_RAM
	mov	r3, r0
	eor	r3, r3, #1
	uxtb	r3, r3
	cmp	r3, #0
	beq	.L201
	.loc 7 605 0 discriminator 2
	movs	r3, #16
	str	r3, [sp, #20]
	ldr	r3, [sp, #20]
	b	.L202
.L201:
	.loc 7 618 0 is_stmt 1
	movs	r3, #0
	strb	r3, [sp, #31]
	.loc 7 620 0
	ldr	r3, [sp, #24]
	ldr	r3, [r3, #4]
	cmp	r3, #0
	beq	.L203
	.loc 7 622 0
	ldr	r3, [sp, #12]
	ldrb	r3, [r3, #4]	@ zero_extendqisi2
	ldr	r2, .L213
	lsls	r3, r3, #5
	add	r3, r3, r2
	adds	r3, r3, #28
	ldrb	r3, [r3]	@ zero_extendqisi2
	cmp	r3, #0
	beq	.L204
	.loc 7 622 0 is_stmt 0 discriminator 1
	ldr	r3, [sp, #12]
	ldr	r3, [r3]
	mov	r1, #528
	mov	r0, r3
	bl	nrf_uarte_int_disable
	b	.L203
.L204:
	.loc 7 626 0 is_stmt 1
	ldr	r3, [sp, #12]
	ldr	r3, [r3]
	mov	r1, #516
	mov	r0, r3
	bl	nrf_uart_int_disable
.L203:
	.loc 7 631 0
	ldr	r3, [sp, #24]
	ldrb	r3, [r3, #23]	@ zero_extendqisi2
	cmp	r3, #0
	beq	.L205
	.loc 7 633 0
	ldr	r3, [sp, #24]
	ldrb	r3, [r3, #24]	@ zero_extendqisi2
	cmp	r3, #0
	beq	.L206
	.loc 7 635 0
	ldr	r3, [sp, #24]
	ldr	r3, [r3, #4]
	cmp	r3, #0
	beq	.L207
	.loc 7 637 0
	ldr	r3, [sp, #12]
	ldrb	r3, [r3, #4]	@ zero_extendqisi2
	ldr	r2, .L213
	lsls	r3, r3, #5
	add	r3, r3, r2
	adds	r3, r3, #28
	ldrb	r3, [r3]	@ zero_extendqisi2
	cmp	r3, #0
	beq	.L208
	.loc 7 637 0 is_stmt 0 discriminator 1
	ldr	r3, [sp, #12]
	ldr	r3, [r3]
	mov	r1, #528
	mov	r0, r3
	bl	nrf_uarte_int_enable
	b	.L207
.L208:
	.loc 7 641 0 is_stmt 1
	ldr	r3, [sp, #12]
	ldr	r3, [r3]
	mov	r1, #516
	mov	r0, r3
	bl	nrf_uart_int_enable
.L207:
	.loc 7 646 0
	movs	r3, #17
	str	r3, [sp, #20]
	.loc 7 648 0
	ldr	r3, [sp, #20]
	b	.L202
.L206:
	.loc 7 650 0
	movs	r3, #1
	strb	r3, [sp, #31]
.L205:
	.loc 7 653 0
	ldrb	r3, [sp, #31]
	eor	r3, r3, #1
	uxtb	r3, r3
	cmp	r3, #0
	beq	.L209
	.loc 7 655 0
	ldr	r3, [sp, #24]
	ldrb	r2, [sp, #7]
	strb	r2, [r3, #23]
	.loc 7 656 0
	ldr	r3, [sp, #24]
	ldr	r2, [sp, #8]
	str	r2, [r3, #12]
	.loc 7 657 0
	ldr	r3, [sp, #24]
	movs	r2, #0
	strb	r2, [r3, #25]
	.loc 7 658 0
	ldr	r3, [sp, #24]
	movs	r2, #0
	strb	r2, [r3, #24]
	b	.L212
.L209:
	.loc 7 662 0
	ldr	r3, [sp, #24]
	ldr	r2, [sp, #8]
	str	r2, [r3, #16]
	.loc 7 663 0
	ldr	r3, [sp, #24]
	ldrb	r2, [sp, #7]
	strb	r2, [r3, #24]
.L212:
	.loc 7 668 0
	ldr	r3, [sp, #12]
	ldrb	r3, [r3, #4]	@ zero_extendqisi2
	ldr	r2, .L213
	lsls	r3, r3, #5
	add	r3, r3, r2
	adds	r3, r3, #28
	ldrb	r3, [r3]	@ zero_extendqisi2
	cmp	r3, #0
	beq	.L211
	.loc 7 668 0 is_stmt 0 discriminator 1
	ldrb	r3, [sp, #31]	@ zero_extendqisi2
	ldrb	r2, [sp, #7]	@ zero_extendqisi2
	ldr	r1, [sp, #8]
	ldr	r0, [sp, #12]
	bl	nrf_drv_uart_rx_for_uarte
	mov	r3, r0
	b	.L202
.L211:
	.loc 7 672 0 is_stmt 1
	ldrb	r3, [sp, #31]	@ zero_extendqisi2
	ldrb	r2, [sp, #7]	@ zero_extendqisi2
	ldr	r1, [sp, #8]
	ldr	r0, [sp, #12]
	bl	nrf_drv_uart_rx_for_uart
	mov	r3, r0
.L202:
	.loc 7 676 0
	mov	r0, r3
	add	sp, sp, #36
.LCFI174:
	@ sp needed
	ldr	pc, [sp], #4
.L214:
	.align	2
.L213:
	.word	m_cb
.LFE255:
	.size	nrf_drv_uart_rx, .-nrf_drv_uart_rx
	.section	.text.nrf_drv_uart_rx_ready,"ax",%progbits
	.align	1
	.global	nrf_drv_uart_rx_ready
	.syntax unified
	.thumb
	.thumb_func
	.fpu fpv4-sp-d16
	.type	nrf_drv_uart_rx_ready, %function
nrf_drv_uart_rx_ready:
.LFB256:
	.loc 7 679 0
	@ args = 0, pretend = 0, frame = 8
	@ frame_needed = 0, uses_anonymous_args = 0
	push	{lr}
.LCFI175:
	sub	sp, sp, #12
.LCFI176:
	str	r0, [sp, #4]
	.loc 7 680 0
	ldr	r3, [sp, #4]
	ldrb	r3, [r3, #4]	@ zero_extendqisi2
	ldr	r2, .L218
	lsls	r3, r3, #5
	add	r3, r3, r2
	adds	r3, r3, #28
	ldrb	r3, [r3]	@ zero_extendqisi2
	cmp	r3, #0
	beq	.L216
	.loc 7 680 0 is_stmt 0 discriminator 1
	ldr	r3, [sp, #4]
	ldr	r3, [r3]
	mov	r1, #272
	mov	r0, r3
	bl	nrf_uarte_event_check
	mov	r3, r0
	b	.L217
.L216:
	.loc 7 684 0 is_stmt 1
	ldr	r3, [sp, #4]
	ldr	r3, [r3]
	mov	r1, #264
	mov	r0, r3
	bl	nrf_uart_event_check
	mov	r3, r0
.L217:
	.loc 7 688 0
	mov	r0, r3
	add	sp, sp, #12
.LCFI177:
	@ sp needed
	ldr	pc, [sp], #4
.L219:
	.align	2
.L218:
	.word	m_cb
.LFE256:
	.size	nrf_drv_uart_rx_ready, .-nrf_drv_uart_rx_ready
	.section	.text.nrf_drv_uart_rx_enable,"ax",%progbits
	.align	1
	.global	nrf_drv_uart_rx_enable
	.syntax unified
	.thumb
	.thumb_func
	.fpu fpv4-sp-d16
	.type	nrf_drv_uart_rx_enable, %function
nrf_drv_uart_rx_enable:
.LFB257:
	.loc 7 691 0
	@ args = 0, pretend = 0, frame = 8
	@ frame_needed = 0, uses_anonymous_args = 0
	push	{lr}
.LCFI178:
	sub	sp, sp, #12
.LCFI179:
	str	r0, [sp, #4]
	.loc 7 693 0
	ldr	r3, [sp, #4]
	ldrb	r3, [r3, #4]	@ zero_extendqisi2
	ldr	r2, .L223
	lsls	r3, r3, #5
	add	r3, r3, r2
	adds	r3, r3, #28
	ldrb	r3, [r3]	@ zero_extendqisi2
	cmp	r3, #0
	bne	.L222
	.loc 7 697 0
	ldr	r3, [sp, #4]
	ldrb	r3, [r3, #4]	@ zero_extendqisi2
	ldr	r2, .L223
	lsls	r3, r3, #5
	add	r3, r3, r2
	adds	r3, r3, #26
	ldrb	r3, [r3]	@ zero_extendqisi2
	eor	r3, r3, #1
	uxtb	r3, r3
	cmp	r3, #0
	beq	.L222
	.loc 7 697 0 is_stmt 0 discriminator 1
	ldr	r0, [sp, #4]
	bl	rx_enable
	ldr	r3, [sp, #4]
	ldrb	r3, [r3, #4]	@ zero_extendqisi2
	ldr	r2, .L223
	lsls	r3, r3, #5
	add	r3, r3, r2
	adds	r3, r3, #26
	movs	r2, #1
	strb	r2, [r3]
.L222:
	.loc 7 705 0 is_stmt 1
	nop
	add	sp, sp, #12
.LCFI180:
	@ sp needed
	ldr	pc, [sp], #4
.L224:
	.align	2
.L223:
	.word	m_cb
.LFE257:
	.size	nrf_drv_uart_rx_enable, .-nrf_drv_uart_rx_enable
	.section	.text.nrf_drv_uart_rx_disable,"ax",%progbits
	.align	1
	.global	nrf_drv_uart_rx_disable
	.syntax unified
	.thumb
	.thumb_func
	.fpu fpv4-sp-d16
	.type	nrf_drv_uart_rx_disable, %function
nrf_drv_uart_rx_disable:
.LFB258:
	.loc 7 708 0
	@ args = 0, pretend = 0, frame = 8
	@ frame_needed = 0, uses_anonymous_args = 0
	push	{lr}
.LCFI181:
	sub	sp, sp, #12
.LCFI182:
	str	r0, [sp, #4]
	.loc 7 710 0
	ldr	r3, [sp, #4]
	ldrb	r3, [r3, #4]	@ zero_extendqisi2
	ldr	r2, .L228
	lsls	r3, r3, #5
	add	r3, r3, r2
	adds	r3, r3, #28
	ldrb	r3, [r3]	@ zero_extendqisi2
	cmp	r3, #0
	bne	.L227
	.loc 7 714 0
	ldr	r3, [sp, #4]
	ldr	r3, [r3]
	movs	r1, #4
	mov	r0, r3
	bl	nrf_uart_task_trigger
	ldr	r3, [sp, #4]
	ldrb	r3, [r3, #4]	@ zero_extendqisi2
	ldr	r2, .L228
	lsls	r3, r3, #5
	add	r3, r3, r2
	adds	r3, r3, #26
	movs	r2, #0
	strb	r2, [r3]
.L227:
	.loc 7 719 0
	nop
	add	sp, sp, #12
.LCFI183:
	@ sp needed
	ldr	pc, [sp], #4
.L229:
	.align	2
.L228:
	.word	m_cb
.LFE258:
	.size	nrf_drv_uart_rx_disable, .-nrf_drv_uart_rx_disable
	.section	.text.nrf_drv_uart_errorsrc_get,"ax",%progbits
	.align	1
	.global	nrf_drv_uart_errorsrc_get
	.syntax unified
	.thumb
	.thumb_func
	.fpu fpv4-sp-d16
	.type	nrf_drv_uart_errorsrc_get, %function
nrf_drv_uart_errorsrc_get:
.LFB259:
	.loc 7 722 0
	@ args = 0, pretend = 0, frame = 16
	@ frame_needed = 0, uses_anonymous_args = 0
	push	{lr}
.LCFI184:
	sub	sp, sp, #20
.LCFI185:
	str	r0, [sp, #4]
	.loc 7 724 0
	ldr	r3, [sp, #4]
	ldrb	r3, [r3, #4]	@ zero_extendqisi2
	ldr	r2, .L234
	lsls	r3, r3, #5
	add	r3, r3, r2
	adds	r3, r3, #28
	ldrb	r3, [r3]	@ zero_extendqisi2
	cmp	r3, #0
	beq	.L231
	.loc 7 724 0 is_stmt 0 discriminator 1
	ldr	r3, [sp, #4]
	ldr	r3, [r3]
	mov	r1, #292
	mov	r0, r3
	bl	nrf_uarte_event_clear
	ldr	r3, [sp, #4]
	ldr	r3, [r3]
	mov	r0, r3
	bl	nrf_uarte_errorsrc_get_and_clear
	str	r0, [sp, #12]
	b	.L232
.L231:
	.loc 7 729 0 is_stmt 1
	ldr	r3, [sp, #4]
	ldr	r3, [r3]
	mov	r1, #292
	mov	r0, r3
	bl	nrf_uart_event_clear
	ldr	r3, [sp, #4]
	ldr	r3, [r3]
	mov	r0, r3
	bl	nrf_uart_errorsrc_get_and_clear
	str	r0, [sp, #12]
.L232:
	.loc 7 734 0
	ldr	r3, [sp, #12]
	.loc 7 735 0
	mov	r0, r3
	add	sp, sp, #20
.LCFI186:
	@ sp needed
	ldr	pc, [sp], #4
.L235:
	.align	2
.L234:
	.word	m_cb
.LFE259:
	.size	nrf_drv_uart_errorsrc_get, .-nrf_drv_uart_errorsrc_get
	.section	.text.rx_done_event,"ax",%progbits
	.align	1
	.syntax unified
	.thumb
	.thumb_func
	.fpu fpv4-sp-d16
	.type	rx_done_event, %function
rx_done_event:
.LFB260:
	.loc 7 738 0
	@ args = 0, pretend = 0, frame = 32
	@ frame_needed = 0, uses_anonymous_args = 0
	push	{lr}
.LCFI187:
	sub	sp, sp, #36
.LCFI188:
	str	r0, [sp, #12]
	mov	r3, r1
	str	r2, [sp, #4]
	strb	r3, [sp, #11]
	.loc 7 741 0
	movs	r3, #1
	strb	r3, [sp, #16]
	.loc 7 742 0
	ldrb	r3, [sp, #11]
	strb	r3, [sp, #24]
	.loc 7 743 0
	ldr	r3, [sp, #4]
	str	r3, [sp, #20]
	.loc 7 745 0
	ldr	r3, [sp, #12]
	ldr	r3, [r3, #4]
	ldr	r2, [sp, #12]
	ldr	r1, [r2]
	add	r2, sp, #16
	mov	r0, r2
	blx	r3
.LVL0:
	.loc 7 746 0
	nop
	add	sp, sp, #36
.LCFI189:
	@ sp needed
	ldr	pc, [sp], #4
.LFE260:
	.size	rx_done_event, .-rx_done_event
	.section	.text.tx_done_event,"ax",%progbits
	.align	1
	.syntax unified
	.thumb
	.thumb_func
	.fpu fpv4-sp-d16
	.type	tx_done_event, %function
tx_done_event:
.LFB261:
	.loc 7 749 0
	@ args = 0, pretend = 0, frame = 24
	@ frame_needed = 0, uses_anonymous_args = 0
	push	{lr}
.LCFI190:
	sub	sp, sp, #28
.LCFI191:
	str	r0, [sp, #4]
	mov	r3, r1
	strb	r3, [sp, #3]
	.loc 7 752 0
	movs	r3, #0
	strb	r3, [sp, #8]
	.loc 7 753 0
	ldrb	r3, [sp, #3]
	strb	r3, [sp, #16]
	.loc 7 754 0
	ldr	r3, [sp, #4]
	ldr	r3, [r3, #8]
	str	r3, [sp, #12]
	.loc 7 756 0
	ldr	r3, [sp, #4]
	movs	r2, #0
	strb	r2, [r3, #22]
	.loc 7 759 0
	ldr	r3, [sp, #4]
	ldr	r3, [r3, #4]
	ldr	r2, [sp, #4]
	ldr	r1, [r2]
	add	r2, sp, #8
	mov	r0, r2
	blx	r3
.LVL1:
	.loc 7 760 0
	nop
	add	sp, sp, #28
.LCFI192:
	@ sp needed
	ldr	pc, [sp], #4
.LFE261:
	.size	tx_done_event, .-tx_done_event
	.section	.text.nrf_drv_uart_tx_abort,"ax",%progbits
	.align	1
	.global	nrf_drv_uart_tx_abort
	.syntax unified
	.thumb
	.thumb_func
	.fpu fpv4-sp-d16
	.type	nrf_drv_uart_tx_abort, %function
nrf_drv_uart_tx_abort:
.LFB262:
	.loc 7 763 0
	@ args = 0, pretend = 0, frame = 16
	@ frame_needed = 0, uses_anonymous_args = 0
	push	{lr}
.LCFI193:
	sub	sp, sp, #20
.LCFI194:
	str	r0, [sp, #4]
	.loc 7 764 0
	ldr	r3, [sp, #4]
	ldrb	r3, [r3, #4]	@ zero_extendqisi2
	lsls	r3, r3, #5
	ldr	r2, .L244
	add	r3, r3, r2
	str	r3, [sp, #12]
	.loc 7 766 0
	ldr	r3, [sp, #4]
	ldrb	r3, [r3, #4]	@ zero_extendqisi2
	ldr	r2, .L244
	lsls	r3, r3, #5
	add	r3, r3, r2
	adds	r3, r3, #28
	ldrb	r3, [r3]	@ zero_extendqisi2
	cmp	r3, #0
	beq	.L239
	.loc 7 766 0 is_stmt 0 discriminator 1
	ldr	r3, [sp, #4]
	ldr	r3, [r3]
	mov	r1, #344
	mov	r0, r3
	bl	nrf_uarte_event_clear
	ldr	r3, [sp, #4]
	ldr	r3, [r3]
	movs	r1, #12
	mov	r0, r3
	bl	nrf_uarte_task_trigger
	ldr	r3, [sp, #12]
	ldr	r3, [r3, #4]
	cmp	r3, #0
	bne	.L243
	.loc 7 766 0
	nop
.L241:
	.loc 7 766 0 discriminator 2
	ldr	r3, [sp, #4]
	ldr	r3, [r3]
	mov	r1, #344
	mov	r0, r3
	bl	nrf_uarte_event_check
	mov	r3, r0
	eor	r3, r3, #1
	uxtb	r3, r3
	cmp	r3, #0
	bne	.L241
	.loc 7 788 0 is_stmt 1
	b	.L243
.L239:
	.loc 7 775 0
	ldr	r3, [sp, #4]
	ldr	r3, [r3]
	movs	r1, #12
	mov	r0, r3
	bl	nrf_uart_task_trigger
	ldr	r3, [sp, #12]
	ldr	r3, [r3, #4]
	cmp	r3, #0
	beq	.L242
	.loc 7 775 0 is_stmt 0 discriminator 1
	ldr	r3, [sp, #12]
	ldrh	r3, [r3, #20]	@ movhi
	uxth	r3, r3
	uxtb	r3, r3
	mov	r1, r3
	ldr	r0, [sp, #12]
	bl	tx_done_event
	.loc 7 788 0 is_stmt 1 discriminator 1
	b	.L243
.L242:
	.loc 7 775 0 discriminator 2
	ldr	r3, [sp, #12]
	mov	r2, #256
	strh	r2, [r3, #20]	@ movhi
.L243:
	.loc 7 788 0
	nop
	add	sp, sp, #20
.LCFI195:
	@ sp needed
	ldr	pc, [sp], #4
.L245:
	.align	2
.L244:
	.word	m_cb
.LFE262:
	.size	nrf_drv_uart_tx_abort, .-nrf_drv_uart_tx_abort
	.section	.text.nrf_drv_uart_rx_abort,"ax",%progbits
	.align	1
	.global	nrf_drv_uart_rx_abort
	.syntax unified
	.thumb
	.thumb_func
	.fpu fpv4-sp-d16
	.type	nrf_drv_uart_rx_abort, %function
nrf_drv_uart_rx_abort:
.LFB263:
	.loc 7 791 0
	@ args = 0, pretend = 0, frame = 8
	@ frame_needed = 0, uses_anonymous_args = 0
	push	{lr}
.LCFI196:
	sub	sp, sp, #12
.LCFI197:
	str	r0, [sp, #4]
	.loc 7 792 0
	ldr	r3, [sp, #4]
	ldrb	r3, [r3, #4]	@ zero_extendqisi2
	ldr	r2, .L250
	lsls	r3, r3, #5
	add	r3, r3, r2
	adds	r3, r3, #28
	ldrb	r3, [r3]	@ zero_extendqisi2
	cmp	r3, #0
	beq	.L247
	.loc 7 792 0 is_stmt 0 discriminator 1
	ldr	r3, [sp, #4]
	ldr	r3, [r3]
	movs	r1, #4
	mov	r0, r3
	bl	nrf_uarte_task_trigger
	.loc 7 802 0 is_stmt 1 discriminator 1
	b	.L249
.L247:
	.loc 7 796 0
	ldr	r3, [sp, #4]
	ldr	r3, [r3]
	mov	r1, #516
	mov	r0, r3
	bl	nrf_uart_int_disable
	ldr	r3, [sp, #4]
	ldr	r3, [r3]
	movs	r1, #4
	mov	r0, r3
	bl	nrf_uart_task_trigger
.L249:
	.loc 7 802 0
	nop
	add	sp, sp, #12
.LCFI198:
	@ sp needed
	ldr	pc, [sp], #4
.L251:
	.align	2
.L250:
	.word	m_cb
.LFE263:
	.size	nrf_drv_uart_rx_abort, .-nrf_drv_uart_rx_abort
	.section	.text.uart_irq_handler,"ax",%progbits
	.align	1
	.syntax unified
	.thumb
	.thumb_func
	.fpu fpv4-sp-d16
	.type	uart_irq_handler, %function
uart_irq_handler:
.LFB264:
	.loc 7 807 0
	@ args = 0, pretend = 0, frame = 32
	@ frame_needed = 0, uses_anonymous_args = 0
	push	{lr}
.LCFI199:
	sub	sp, sp, #36
.LCFI200:
	str	r0, [sp, #4]
	str	r1, [sp]
	.loc 7 808 0
	mov	r1, #512
	ldr	r0, [sp, #4]
	bl	nrf_uart_int_enable_check
	mov	r3, r0
	cmp	r3, #0
	beq	.L253
	.loc 7 809 0 discriminator 1
	mov	r1, #292
	ldr	r0, [sp, #4]
	bl	nrf_uart_event_check
	mov	r3, r0
	.loc 7 808 0 discriminator 1
	cmp	r3, #0
	beq	.L253
.LBB13:
	.loc 7 812 0
	mov	r1, #292
	ldr	r0, [sp, #4]
	bl	nrf_uart_event_clear
	.loc 7 813 0
	mov	r1, #516
	ldr	r0, [sp, #4]
	bl	nrf_uart_int_disable
	.loc 7 814 0
	ldr	r3, [sp]
	ldrb	r3, [r3, #26]	@ zero_extendqisi2
	eor	r3, r3, #1
	uxtb	r3, r3
	cmp	r3, #0
	beq	.L254
	.loc 7 816 0
	movs	r1, #4
	ldr	r0, [sp, #4]
	bl	nrf_uart_task_trigger
.L254:
	.loc 7 818 0
	movs	r3, #2
	strb	r3, [sp, #8]
	.loc 7 819 0
	ldr	r0, [sp, #4]
	bl	nrf_uart_errorsrc_get_and_clear
	mov	r3, r0
	str	r3, [sp, #20]
	.loc 7 820 0
	ldr	r3, [sp]
	ldrb	r3, [r3, #23]	@ zero_extendqisi2
	strb	r3, [sp, #16]
	.loc 7 821 0
	ldr	r3, [sp]
	ldr	r3, [r3, #12]
	str	r3, [sp, #12]
	.loc 7 824 0
	ldr	r3, [sp]
	movs	r2, #0
	strb	r2, [r3, #23]
	.loc 7 825 0
	ldr	r3, [sp]
	movs	r2, #0
	strb	r2, [r3, #24]
	.loc 7 827 0
	ldr	r3, [sp]
	ldr	r3, [r3, #4]
	ldr	r2, [sp]
	ldr	r1, [r2]
	add	r2, sp, #8
	mov	r0, r2
	blx	r3
.LVL2:
.LBE13:
	.loc 7 810 0
	b	.L255
.L253:
	.loc 7 829 0
	movs	r1, #4
	ldr	r0, [sp, #4]
	bl	nrf_uart_int_enable_check
	mov	r3, r0
	cmp	r3, #0
	beq	.L255
	.loc 7 830 0 discriminator 1
	mov	r1, #264
	ldr	r0, [sp, #4]
	bl	nrf_uart_event_check
	mov	r3, r0
	.loc 7 829 0 discriminator 1
	cmp	r3, #0
	beq	.L255
	.loc 7 832 0
	ldr	r1, [sp]
	ldr	r0, [sp, #4]
	bl	rx_byte
	.loc 7 833 0
	ldr	r3, [sp]
	ldrb	r2, [r3, #23]	@ zero_extendqisi2
	ldr	r3, [sp]
	ldrb	r3, [r3, #25]
	uxtb	r3, r3
	cmp	r2, r3
	bne	.L255
	.loc 7 835 0
	ldr	r3, [sp]
	ldrb	r3, [r3, #24]	@ zero_extendqisi2
	cmp	r3, #0
	beq	.L256
.LBB14:
	.loc 7 837 0
	ldr	r3, [sp]
	ldr	r3, [r3, #12]
	str	r3, [sp, #28]
	.loc 7 838 0
	ldr	r3, [sp]
	ldrb	r3, [r3, #25]
	strb	r3, [sp, #27]
	.loc 7 841 0
	ldr	r3, [sp]
	ldrb	r2, [r3, #24]	@ zero_extendqisi2
	ldr	r3, [sp]
	strb	r2, [r3, #23]
	.loc 7 842 0
	ldr	r3, [sp]
	ldr	r2, [r3, #16]
	ldr	r3, [sp]
	str	r2, [r3, #12]
	.loc 7 843 0
	ldr	r3, [sp]
	movs	r2, #0
	strb	r2, [r3, #24]
	.loc 7 844 0
	ldr	r3, [sp]
	movs	r2, #0
	strb	r2, [r3, #25]
	.loc 7 845 0
	ldrb	r3, [sp, #27]	@ zero_extendqisi2
	ldr	r2, [sp, #28]
	mov	r1, r3
	ldr	r0, [sp]
	bl	rx_done_event
.LBE14:
	b	.L255
.L256:
	.loc 7 849 0
	ldr	r3, [sp]
	ldrb	r3, [r3, #26]	@ zero_extendqisi2
	eor	r3, r3, #1
	uxtb	r3, r3
	cmp	r3, #0
	beq	.L257
	.loc 7 851 0
	movs	r1, #4
	ldr	r0, [sp, #4]
	bl	nrf_uart_task_trigger
.L257:
	.loc 7 853 0
	mov	r1, #516
	ldr	r0, [sp, #4]
	bl	nrf_uart_int_disable
	.loc 7 854 0
	ldr	r3, [sp]
	movs	r2, #0
	strb	r2, [r3, #23]
	.loc 7 855 0
	ldr	r3, [sp]
	ldrb	r3, [r3, #25]
	uxtb	r1, r3
	ldr	r3, [sp]
	ldr	r3, [r3, #12]
	mov	r2, r3
	ldr	r0, [sp]
	bl	rx_done_event
.L255:
	.loc 7 860 0
	mov	r1, #284
	ldr	r0, [sp, #4]
	bl	nrf_uart_event_check
	mov	r3, r0
	cmp	r3, #0
	beq	.L258
	.loc 7 862 0
	ldr	r3, [sp]
	ldrh	r3, [r3, #20]	@ movhi
	uxth	r2, r3
	ldr	r3, [sp]
	ldrb	r3, [r3, #22]	@ zero_extendqisi2
	uxth	r3, r3
	cmp	r2, r3
	bcs	.L259
	.loc 7 864 0
	ldr	r1, [sp]
	ldr	r0, [sp, #4]
	bl	tx_byte
	b	.L258
.L259:
	.loc 7 868 0
	mov	r1, #284
	ldr	r0, [sp, #4]
	bl	nrf_uart_event_clear
	.loc 7 869 0
	ldr	r3, [sp]
	ldrb	r3, [r3, #22]	@ zero_extendqisi2
	cmp	r3, #0
	beq	.L258
	.loc 7 871 0
	ldr	r3, [sp]
	ldrb	r3, [r3, #22]	@ zero_extendqisi2
	mov	r1, r3
	ldr	r0, [sp]
	bl	tx_done_event
.L258:
	.loc 7 876 0
	mov	r1, #324
	ldr	r0, [sp, #4]
	bl	nrf_uart_event_check
	mov	r3, r0
	cmp	r3, #0
	beq	.L262
	.loc 7 878 0
	mov	r1, #324
	ldr	r0, [sp, #4]
	bl	nrf_uart_event_clear
	.loc 7 881 0
	ldr	r3, [sp]
	ldrb	r3, [r3, #26]	@ zero_extendqisi2
	cmp	r3, #0
	beq	.L261
	.loc 7 883 0
	movs	r1, #0
	ldr	r0, [sp, #4]
	bl	nrf_uart_task_trigger
.L261:
	.loc 7 885 0
	ldr	r3, [sp]
	ldrb	r3, [r3, #23]	@ zero_extendqisi2
	cmp	r3, #0
	beq	.L262
	.loc 7 887 0
	ldr	r3, [sp]
	movs	r2, #0
	strb	r2, [r3, #23]
	.loc 7 888 0
	ldr	r3, [sp]
	ldrb	r3, [r3, #25]
	uxtb	r1, r3
	ldr	r3, [sp]
	ldr	r3, [r3, #12]
	mov	r2, r3
	ldr	r0, [sp]
	bl	rx_done_event
.L262:
	.loc 7 891 0
	nop
	add	sp, sp, #36
.LCFI201:
	@ sp needed
	ldr	pc, [sp], #4
.LFE264:
	.size	uart_irq_handler, .-uart_irq_handler
	.section	.text.uarte_irq_handler,"ax",%progbits
	.align	1
	.syntax unified
	.thumb
	.thumb_func
	.fpu fpv4-sp-d16
	.type	uarte_irq_handler, %function
uarte_irq_handler:
.LFB265:
	.loc 7 896 0
	@ args = 0, pretend = 0, frame = 32
	@ frame_needed = 0, uses_anonymous_args = 0
	push	{lr}
.LCFI202:
	sub	sp, sp, #36
.LCFI203:
	str	r0, [sp, #4]
	str	r1, [sp]
	.loc 7 897 0
	mov	r1, #292
	ldr	r0, [sp, #4]
	bl	nrf_uarte_event_check
	mov	r3, r0
	cmp	r3, #0
	beq	.L264
.LBB15:
	.loc 7 901 0
	mov	r1, #292
	ldr	r0, [sp, #4]
	bl	nrf_uarte_event_clear
	.loc 7 903 0
	movs	r3, #2
	strb	r3, [sp, #8]
	.loc 7 904 0
	ldr	r0, [sp, #4]
	bl	nrf_uarte_errorsrc_get_and_clear
	mov	r3, r0
	str	r3, [sp, #20]
	.loc 7 905 0
	ldr	r0, [sp, #4]
	bl	nrf_uarte_rx_amount_get
	mov	r3, r0
	uxtb	r3, r3
	strb	r3, [sp, #16]
	.loc 7 906 0
	ldr	r3, [sp]
	ldr	r3, [r3, #12]
	str	r3, [sp, #12]
	.loc 7 909 0
	ldr	r3, [sp]
	movs	r2, #0
	strb	r2, [r3, #23]
	.loc 7 910 0
	ldr	r3, [sp]
	movs	r2, #0
	strb	r2, [r3, #24]
	.loc 7 912 0
	ldr	r3, [sp]
	ldr	r3, [r3, #4]
	ldr	r2, [sp]
	ldr	r1, [r2]
	add	r2, sp, #8
	mov	r0, r2
	blx	r3
.LVL3:
.LBE15:
	b	.L265
.L264:
	.loc 7 914 0
	mov	r1, #272
	ldr	r0, [sp, #4]
	bl	nrf_uarte_event_check
	mov	r3, r0
	cmp	r3, #0
	beq	.L265
.LBB16:
	.loc 7 916 0
	mov	r1, #272
	ldr	r0, [sp, #4]
	bl	nrf_uarte_event_clear
	.loc 7 917 0
	ldr	r0, [sp, #4]
	bl	nrf_uarte_rx_amount_get
	mov	r3, r0
	strb	r3, [sp, #31]
	.loc 7 920 0
	ldr	r3, [sp]
	ldrb	r3, [r3, #23]	@ zero_extendqisi2
	ldrb	r2, [sp, #31]	@ zero_extendqisi2
	cmp	r2, r3
	bne	.L265
	.loc 7 922 0
	ldr	r3, [sp]
	ldrb	r3, [r3, #24]	@ zero_extendqisi2
	cmp	r3, #0
	beq	.L266
.LBB17:
	.loc 7 924 0
	ldr	r3, [sp]
	ldr	r3, [r3, #12]
	str	r3, [sp, #24]
	.loc 7 925 0
	movs	r1, #32
	ldr	r0, [sp, #4]
	bl	nrf_uarte_shorts_disable
	.loc 7 926 0
	ldr	r3, [sp]
	ldrb	r2, [r3, #24]	@ zero_extendqisi2
	ldr	r3, [sp]
	strb	r2, [r3, #23]
	.loc 7 927 0
	ldr	r3, [sp]
	ldr	r2, [r3, #16]
	ldr	r3, [sp]
	str	r2, [r3, #12]
	.loc 7 928 0
	ldr	r3, [sp]
	movs	r2, #0
	strb	r2, [r3, #24]
	.loc 7 929 0
	ldrb	r3, [sp, #31]	@ zero_extendqisi2
	ldr	r2, [sp, #24]
	mov	r1, r3
	ldr	r0, [sp]
	bl	rx_done_event
.LBE17:
	b	.L265
.L266:
	.loc 7 933 0
	ldr	r3, [sp]
	movs	r2, #0
	strb	r2, [r3, #23]
	.loc 7 934 0
	ldr	r3, [sp]
	ldr	r2, [r3, #12]
	ldrb	r3, [sp, #31]	@ zero_extendqisi2
	mov	r1, r3
	ldr	r0, [sp]
	bl	rx_done_event
.L265:
.LBE16:
	.loc 7 939 0
	mov	r1, #324
	ldr	r0, [sp, #4]
	bl	nrf_uarte_event_check
	mov	r3, r0
	cmp	r3, #0
	beq	.L267
	.loc 7 941 0
	mov	r1, #324
	ldr	r0, [sp, #4]
	bl	nrf_uarte_event_clear
	.loc 7 942 0
	ldr	r3, [sp]
	ldrb	r3, [r3, #23]	@ zero_extendqisi2
	cmp	r3, #0
	beq	.L267
	.loc 7 944 0
	ldr	r3, [sp]
	movs	r2, #0
	strb	r2, [r3, #23]
	.loc 7 945 0
	ldr	r0, [sp, #4]
	bl	nrf_uarte_rx_amount_get
	mov	r3, r0
	uxtb	r1, r3
	ldr	r3, [sp]
	ldr	r3, [r3, #12]
	mov	r2, r3
	ldr	r0, [sp]
	bl	rx_done_event
.L267:
	.loc 7 949 0
	mov	r1, #288
	ldr	r0, [sp, #4]
	bl	nrf_uarte_event_check
	mov	r3, r0
	cmp	r3, #0
	beq	.L269
	.loc 7 951 0
	mov	r1, #288
	ldr	r0, [sp, #4]
	bl	nrf_uarte_event_clear
	.loc 7 952 0
	ldr	r3, [sp]
	ldrb	r3, [r3, #22]	@ zero_extendqisi2
	cmp	r3, #0
	beq	.L269
	.loc 7 954 0
	ldr	r0, [sp, #4]
	bl	nrf_uarte_tx_amount_get
	mov	r3, r0
	uxtb	r3, r3
	mov	r1, r3
	ldr	r0, [sp]
	bl	tx_done_event
.L269:
	.loc 7 957 0
	nop
	add	sp, sp, #36
.LCFI204:
	@ sp needed
	ldr	pc, [sp], #4
.LFE265:
	.size	uarte_irq_handler, .-uarte_irq_handler
	.section	.text.UARTE0_UART0_IRQHandler,"ax",%progbits
	.align	1
	.global	UARTE0_UART0_IRQHandler
	.syntax unified
	.thumb
	.thumb_func
	.fpu fpv4-sp-d16
	.type	UARTE0_UART0_IRQHandler, %function
UARTE0_UART0_IRQHandler:
.LFB266:
	.loc 7 962 0
	@ args = 0, pretend = 0, frame = 0
	@ frame_needed = 0, uses_anonymous_args = 0
	push	{r3, lr}
.LCFI205:
	.loc 7 963 0
	ldr	r3, .L274
	ldrb	r3, [r3, #28]	@ zero_extendqisi2
	cmp	r3, #0
	beq	.L271
	.loc 7 963 0 is_stmt 0 discriminator 1
	ldr	r1, .L274
	ldr	r0, .L274+4
	bl	uarte_irq_handler
	.loc 7 972 0 is_stmt 1 discriminator 1
	b	.L273
.L271:
	.loc 7 968 0
	ldr	r1, .L274
	ldr	r0, .L274+4
	bl	uart_irq_handler
.L273:
	.loc 7 972 0
	nop
	pop	{r3, pc}
.L275:
	.align	2
.L274:
	.word	m_cb
	.word	1073750016
.LFE266:
	.size	UARTE0_UART0_IRQHandler, .-UARTE0_UART0_IRQHandler
	.section	.debug_frame,"",%progbits
.Lframe0:
	.4byte	.LECIE0-.LSCIE0
.LSCIE0:
	.4byte	0xffffffff
	.byte	0x3
	.ascii	"\000"
	.uleb128 0x1
	.sleb128 -4
	.uleb128 0xe
	.byte	0xc
	.uleb128 0xd
	.uleb128 0
	.align	2
.LECIE0:
.LSFDE0:
	.4byte	.LEFDE0-.LASFDE0
.LASFDE0:
	.4byte	.Lframe0
	.4byte	.LFB107
	.4byte	.LFE107-.LFB107
	.byte	0x4
	.4byte	.LCFI0-.LFB107
	.byte	0xe
	.uleb128 0x8
	.byte	0x4
	.4byte	.LCFI1-.LCFI0
	.byte	0xe
	.uleb128 0
	.align	2
.LEFDE0:
.LSFDE2:
	.4byte	.LEFDE2-.LASFDE2
.LASFDE2:
	.4byte	.Lframe0
	.4byte	.LFB147
	.4byte	.LFE147-.LFB147
	.byte	0x4
	.4byte	.LCFI2-.LFB147
	.byte	0xe
	.uleb128 0x10
	.byte	0x4
	.4byte	.LCFI3-.LCFI2
	.byte	0xe
	.uleb128 0
	.align	2
.LEFDE2:
.LSFDE4:
	.4byte	.LEFDE4-.LASFDE4
.LASFDE4:
	.4byte	.Lframe0
	.4byte	.LFB148
	.4byte	.LFE148-.LFB148
	.byte	0x4
	.4byte	.LCFI4-.LFB148
	.byte	0xe
	.uleb128 0x8
	.byte	0x4
	.4byte	.LCFI5-.LCFI4
	.byte	0xe
	.uleb128 0
	.align	2
.LEFDE4:
.LSFDE6:
	.4byte	.LEFDE6-.LASFDE6
.LASFDE6:
	.4byte	.Lframe0
	.4byte	.LFB150
	.4byte	.LFE150-.LFB150
	.byte	0x4
	.4byte	.LCFI6-.LFB150
	.byte	0xe
	.uleb128 0x8
	.byte	0x4
	.4byte	.LCFI7-.LCFI6
	.byte	0xe
	.uleb128 0
	.align	2
.LEFDE6:
.LSFDE8:
	.4byte	.LEFDE8-.LASFDE8
.LASFDE8:
	.4byte	.Lframe0
	.4byte	.LFB151
	.4byte	.LFE151-.LFB151
	.byte	0x4
	.4byte	.LCFI8-.LFB151
	.byte	0xe
	.uleb128 0x8
	.byte	0x4
	.4byte	.LCFI9-.LCFI8
	.byte	0xe
	.uleb128 0
	.align	2
.LEFDE8:
.LSFDE10:
	.4byte	.LEFDE10-.LASFDE10
.LASFDE10:
	.4byte	.Lframe0
	.4byte	.LFB152
	.4byte	.LFE152-.LFB152
	.byte	0x4
	.4byte	.LCFI10-.LFB152
	.byte	0xe
	.uleb128 0x8
	.byte	0x4
	.4byte	.LCFI11-.LCFI10
	.byte	0xe
	.uleb128 0
	.align	2
.LEFDE10:
.LSFDE12:
	.4byte	.LEFDE12-.LASFDE12
.LASFDE12:
	.4byte	.Lframe0
	.4byte	.LFB153
	.4byte	.LFE153-.LFB153
	.byte	0x4
	.4byte	.LCFI12-.LFB153
	.byte	0xe
	.uleb128 0x10
	.byte	0x4
	.4byte	.LCFI13-.LCFI12
	.byte	0xe
	.uleb128 0
	.align	2
.LEFDE12:
.LSFDE14:
	.4byte	.LEFDE14-.LASFDE14
.LASFDE14:
	.4byte	.Lframe0
	.4byte	.LFB154
	.4byte	.LFE154-.LFB154
	.byte	0x4
	.4byte	.LCFI14-.LFB154
	.byte	0xe
	.uleb128 0x8
	.byte	0x4
	.4byte	.LCFI15-.LCFI14
	.byte	0xe
	.uleb128 0
	.align	2
.LEFDE14:
.LSFDE16:
	.4byte	.LEFDE16-.LASFDE16
.LASFDE16:
	.4byte	.Lframe0
	.4byte	.LFB155
	.4byte	.LFE155-.LFB155
	.byte	0x4
	.4byte	.LCFI16-.LFB155
	.byte	0xe
	.uleb128 0x8
	.byte	0x4
	.4byte	.LCFI17-.LCFI16
	.byte	0xe
	.uleb128 0
	.align	2
.LEFDE16:
.LSFDE18:
	.4byte	.LEFDE18-.LASFDE18
.LASFDE18:
	.4byte	.Lframe0
	.4byte	.LFB156
	.4byte	.LFE156-.LFB156
	.byte	0x4
	.4byte	.LCFI18-.LFB156
	.byte	0xe
	.uleb128 0x10
	.byte	0x4
	.4byte	.LCFI19-.LCFI18
	.byte	0xe
	.uleb128 0
	.align	2
.LEFDE18:
.LSFDE20:
	.4byte	.LEFDE20-.LASFDE20
.LASFDE20:
	.4byte	.Lframe0
	.4byte	.LFB157
	.4byte	.LFE157-.LFB157
	.byte	0x4
	.4byte	.LCFI20-.LFB157
	.byte	0xe
	.uleb128 0x4
	.byte	0x8e
	.uleb128 0x1
	.byte	0x4
	.4byte	.LCFI21-.LCFI20
	.byte	0xe
	.uleb128 0x10
	.byte	0x4
	.4byte	.LCFI22-.LCFI21
	.byte	0xe
	.uleb128 0x4
	.align	2
.LEFDE20:
.LSFDE22:
	.4byte	.LEFDE22-.LASFDE22
.LASFDE22:
	.4byte	.Lframe0
	.4byte	.LFB158
	.4byte	.LFE158-.LFB158
	.byte	0x4
	.4byte	.LCFI23-.LFB158
	.byte	0xe
	.uleb128 0x8
	.byte	0x4
	.4byte	.LCFI24-.LCFI23
	.byte	0xe
	.uleb128 0
	.align	2
.LEFDE22:
.LSFDE24:
	.4byte	.LEFDE24-.LASFDE24
.LASFDE24:
	.4byte	.Lframe0
	.4byte	.LFB159
	.4byte	.LFE159-.LFB159
	.byte	0x4
	.4byte	.LCFI25-.LFB159
	.byte	0xe
	.uleb128 0x8
	.byte	0x4
	.4byte	.LCFI26-.LCFI25
	.byte	0xe
	.uleb128 0
	.align	2
.LEFDE24:
.LSFDE26:
	.4byte	.LEFDE26-.LASFDE26
.LASFDE26:
	.4byte	.Lframe0
	.4byte	.LFB160
	.4byte	.LFE160-.LFB160
	.byte	0x4
	.4byte	.LCFI27-.LFB160
	.byte	0xe
	.uleb128 0x8
	.byte	0x4
	.4byte	.LCFI28-.LCFI27
	.byte	0xe
	.uleb128 0
	.align	2
.LEFDE26:
.LSFDE28:
	.4byte	.LEFDE28-.LASFDE28
.LASFDE28:
	.4byte	.Lframe0
	.4byte	.LFB161
	.4byte	.LFE161-.LFB161
	.byte	0x4
	.4byte	.LCFI29-.LFB161
	.byte	0xe
	.uleb128 0x8
	.byte	0x4
	.4byte	.LCFI30-.LCFI29
	.byte	0xe
	.uleb128 0
	.align	2
.LEFDE28:
.LSFDE30:
	.4byte	.LEFDE30-.LASFDE30
.LASFDE30:
	.4byte	.Lframe0
	.4byte	.LFB162
	.4byte	.LFE162-.LFB162
	.byte	0x4
	.4byte	.LCFI31-.LFB162
	.byte	0xe
	.uleb128 0x10
	.byte	0x4
	.4byte	.LCFI32-.LCFI31
	.byte	0xe
	.uleb128 0
	.align	2
.LEFDE30:
.LSFDE32:
	.4byte	.LEFDE32-.LASFDE32
.LASFDE32:
	.4byte	.Lframe0
	.4byte	.LFB163
	.4byte	.LFE163-.LFB163
	.byte	0x4
	.4byte	.LCFI33-.LFB163
	.byte	0xe
	.uleb128 0x4
	.byte	0x8e
	.uleb128 0x1
	.byte	0x4
	.4byte	.LCFI34-.LCFI33
	.byte	0xe
	.uleb128 0x10
	.byte	0x4
	.4byte	.LCFI35-.LCFI34
	.byte	0xe
	.uleb128 0x4
	.align	2
.LEFDE32:
.LSFDE34:
	.4byte	.LEFDE34-.LASFDE34
.LASFDE34:
	.4byte	.Lframe0
	.4byte	.LFB164
	.4byte	.LFE164-.LFB164
	.byte	0x4
	.4byte	.LCFI36-.LFB164
	.byte	0xe
	.uleb128 0x8
	.byte	0x4
	.4byte	.LCFI37-.LCFI36
	.byte	0xe
	.uleb128 0
	.align	2
.LEFDE34:
.LSFDE36:
	.4byte	.LEFDE36-.LASFDE36
.LASFDE36:
	.4byte	.Lframe0
	.4byte	.LFB165
	.4byte	.LFE165-.LFB165
	.byte	0x4
	.4byte	.LCFI38-.LFB165
	.byte	0xe
	.uleb128 0x8
	.byte	0x4
	.4byte	.LCFI39-.LCFI38
	.byte	0xe
	.uleb128 0
	.align	2
.LEFDE36:
.LSFDE38:
	.4byte	.LEFDE38-.LASFDE38
.LASFDE38:
	.4byte	.Lframe0
	.4byte	.LFB166
	.4byte	.LFE166-.LFB166
	.byte	0x4
	.4byte	.LCFI40-.LFB166
	.byte	0xe
	.uleb128 0x8
	.byte	0x4
	.4byte	.LCFI41-.LCFI40
	.byte	0xe
	.uleb128 0
	.align	2
.LEFDE38:
.LSFDE40:
	.4byte	.LEFDE40-.LASFDE40
.LASFDE40:
	.4byte	.Lframe0
	.4byte	.LFB168
	.4byte	.LFE168-.LFB168
	.byte	0x4
	.4byte	.LCFI42-.LFB168
	.byte	0xe
	.uleb128 0x8
	.byte	0x4
	.4byte	.LCFI43-.LCFI42
	.byte	0xe
	.uleb128 0
	.align	2
.LEFDE40:
.LSFDE42:
	.4byte	.LEFDE42-.LASFDE42
.LASFDE42:
	.4byte	.Lframe0
	.4byte	.LFB169
	.4byte	.LFE169-.LFB169
	.byte	0x4
	.4byte	.LCFI44-.LFB169
	.byte	0xe
	.uleb128 0x8
	.byte	0x4
	.4byte	.LCFI45-.LCFI44
	.byte	0xe
	.uleb128 0
	.align	2
.LEFDE42:
.LSFDE44:
	.4byte	.LEFDE44-.LASFDE44
.LASFDE44:
	.4byte	.Lframe0
	.4byte	.LFB170
	.4byte	.LFE170-.LFB170
	.byte	0x4
	.4byte	.LCFI46-.LFB170
	.byte	0xe
	.uleb128 0x10
	.byte	0x4
	.4byte	.LCFI47-.LCFI46
	.byte	0xe
	.uleb128 0
	.align	2
.LEFDE44:
.LSFDE46:
	.4byte	.LEFDE46-.LASFDE46
.LASFDE46:
	.4byte	.Lframe0
	.4byte	.LFB171
	.4byte	.LFE171-.LFB171
	.byte	0x4
	.4byte	.LCFI48-.LFB171
	.byte	0xe
	.uleb128 0x8
	.byte	0x4
	.4byte	.LCFI49-.LCFI48
	.byte	0xe
	.uleb128 0
	.align	2
.LEFDE46:
.LSFDE48:
	.4byte	.LEFDE48-.LASFDE48
.LASFDE48:
	.4byte	.Lframe0
	.4byte	.LFB173
	.4byte	.LFE173-.LFB173
	.byte	0x4
	.4byte	.LCFI50-.LFB173
	.byte	0xe
	.uleb128 0x8
	.byte	0x4
	.4byte	.LCFI51-.LCFI50
	.byte	0xe
	.uleb128 0
	.align	2
.LEFDE48:
.LSFDE50:
	.4byte	.LEFDE50-.LASFDE50
.LASFDE50:
	.4byte	.Lframe0
	.4byte	.LFB174
	.4byte	.LFE174-.LFB174
	.byte	0x4
	.4byte	.LCFI52-.LFB174
	.byte	0xe
	.uleb128 0x8
	.byte	0x4
	.4byte	.LCFI53-.LCFI52
	.byte	0xe
	.uleb128 0
	.align	2
.LEFDE50:
.LSFDE52:
	.4byte	.LEFDE52-.LASFDE52
.LASFDE52:
	.4byte	.Lframe0
	.4byte	.LFB175
	.4byte	.LFE175-.LFB175
	.byte	0x4
	.4byte	.LCFI54-.LFB175
	.byte	0xe
	.uleb128 0x8
	.byte	0x4
	.4byte	.LCFI55-.LCFI54
	.byte	0xe
	.uleb128 0
	.align	2
.LEFDE52:
.LSFDE54:
	.4byte	.LEFDE54-.LASFDE54
.LASFDE54:
	.4byte	.Lframe0
	.4byte	.LFB177
	.4byte	.LFE177-.LFB177
	.byte	0x4
	.4byte	.LCFI56-.LFB177
	.byte	0xe
	.uleb128 0x8
	.byte	0x4
	.4byte	.LCFI57-.LCFI56
	.byte	0xe
	.uleb128 0
	.align	2
.LEFDE54:
.LSFDE56:
	.4byte	.LEFDE56-.LASFDE56
.LASFDE56:
	.4byte	.Lframe0
	.4byte	.LFB178
	.4byte	.LFE178-.LFB178
	.byte	0x4
	.4byte	.LCFI58-.LFB178
	.byte	0xe
	.uleb128 0x10
	.byte	0x4
	.4byte	.LCFI59-.LCFI58
	.byte	0xe
	.uleb128 0
	.align	2
.LEFDE56:
.LSFDE58:
	.4byte	.LEFDE58-.LASFDE58
.LASFDE58:
	.4byte	.Lframe0
	.4byte	.LFB179
	.4byte	.LFE179-.LFB179
	.byte	0x4
	.4byte	.LCFI60-.LFB179
	.byte	0xe
	.uleb128 0x8
	.byte	0x4
	.4byte	.LCFI61-.LCFI60
	.byte	0xe
	.uleb128 0
	.align	2
.LEFDE58:
.LSFDE60:
	.4byte	.LEFDE60-.LASFDE60
.LASFDE60:
	.4byte	.Lframe0
	.4byte	.LFB180
	.4byte	.LFE180-.LFB180
	.byte	0x4
	.4byte	.LCFI62-.LFB180
	.byte	0xe
	.uleb128 0x8
	.byte	0x4
	.4byte	.LCFI63-.LCFI62
	.byte	0xe
	.uleb128 0
	.align	2
.LEFDE60:
.LSFDE62:
	.4byte	.LEFDE62-.LASFDE62
.LASFDE62:
	.4byte	.Lframe0
	.4byte	.LFB181
	.4byte	.LFE181-.LFB181
	.byte	0x4
	.4byte	.LCFI64-.LFB181
	.byte	0xe
	.uleb128 0x10
	.byte	0x4
	.4byte	.LCFI65-.LCFI64
	.byte	0xe
	.uleb128 0
	.align	2
.LEFDE62:
.LSFDE64:
	.4byte	.LEFDE64-.LASFDE64
.LASFDE64:
	.4byte	.Lframe0
	.4byte	.LFB182
	.4byte	.LFE182-.LFB182
	.byte	0x4
	.4byte	.LCFI66-.LFB182
	.byte	0xe
	.uleb128 0x4
	.byte	0x8e
	.uleb128 0x1
	.byte	0x4
	.4byte	.LCFI67-.LCFI66
	.byte	0xe
	.uleb128 0x10
	.byte	0x4
	.4byte	.LCFI68-.LCFI67
	.byte	0xe
	.uleb128 0x4
	.align	2
.LEFDE64:
.LSFDE66:
	.4byte	.LEFDE66-.LASFDE66
.LASFDE66:
	.4byte	.Lframe0
	.4byte	.LFB183
	.4byte	.LFE183-.LFB183
	.byte	0x4
	.4byte	.LCFI69-.LFB183
	.byte	0xe
	.uleb128 0x8
	.byte	0x4
	.4byte	.LCFI70-.LCFI69
	.byte	0xe
	.uleb128 0
	.align	2
.LEFDE66:
.LSFDE68:
	.4byte	.LEFDE68-.LASFDE68
.LASFDE68:
	.4byte	.Lframe0
	.4byte	.LFB184
	.4byte	.LFE184-.LFB184
	.byte	0x4
	.4byte	.LCFI71-.LFB184
	.byte	0xe
	.uleb128 0x8
	.byte	0x4
	.4byte	.LCFI72-.LCFI71
	.byte	0xe
	.uleb128 0
	.align	2
.LEFDE68:
.LSFDE70:
	.4byte	.LEFDE70-.LASFDE70
.LASFDE70:
	.4byte	.Lframe0
	.4byte	.LFB185
	.4byte	.LFE185-.LFB185
	.byte	0x4
	.4byte	.LCFI73-.LFB185
	.byte	0xe
	.uleb128 0x8
	.byte	0x4
	.4byte	.LCFI74-.LCFI73
	.byte	0xe
	.uleb128 0
	.align	2
.LEFDE70:
.LSFDE72:
	.4byte	.LEFDE72-.LASFDE72
.LASFDE72:
	.4byte	.Lframe0
	.4byte	.LFB186
	.4byte	.LFE186-.LFB186
	.byte	0x4
	.4byte	.LCFI75-.LFB186
	.byte	0xe
	.uleb128 0x8
	.byte	0x4
	.4byte	.LCFI76-.LCFI75
	.byte	0xe
	.uleb128 0
	.align	2
.LEFDE72:
.LSFDE74:
	.4byte	.LEFDE74-.LASFDE74
.LASFDE74:
	.4byte	.Lframe0
	.4byte	.LFB187
	.4byte	.LFE187-.LFB187
	.byte	0x4
	.4byte	.LCFI77-.LFB187
	.byte	0xe
	.uleb128 0x10
	.byte	0x4
	.4byte	.LCFI78-.LCFI77
	.byte	0xe
	.uleb128 0
	.align	2
.LEFDE74:
.LSFDE76:
	.4byte	.LEFDE76-.LASFDE76
.LASFDE76:
	.4byte	.Lframe0
	.4byte	.LFB188
	.4byte	.LFE188-.LFB188
	.byte	0x4
	.4byte	.LCFI79-.LFB188
	.byte	0xe
	.uleb128 0x4
	.byte	0x8e
	.uleb128 0x1
	.byte	0x4
	.4byte	.LCFI80-.LCFI79
	.byte	0xe
	.uleb128 0x10
	.byte	0x4
	.4byte	.LCFI81-.LCFI80
	.byte	0xe
	.uleb128 0x4
	.align	2
.LEFDE76:
.LSFDE78:
	.4byte	.LEFDE78-.LASFDE78
.LASFDE78:
	.4byte	.Lframe0
	.4byte	.LFB189
	.4byte	.LFE189-.LFB189
	.byte	0x4
	.4byte	.LCFI82-.LFB189
	.byte	0xe
	.uleb128 0x8
	.byte	0x4
	.4byte	.LCFI83-.LCFI82
	.byte	0xe
	.uleb128 0
	.align	2
.LEFDE78:
.LSFDE80:
	.4byte	.LEFDE80-.LASFDE80
.LASFDE80:
	.4byte	.Lframe0
	.4byte	.LFB191
	.4byte	.LFE191-.LFB191
	.byte	0x4
	.4byte	.LCFI84-.LFB191
	.byte	0xe
	.uleb128 0x8
	.byte	0x4
	.4byte	.LCFI85-.LCFI84
	.byte	0xe
	.uleb128 0
	.align	2
.LEFDE80:
.LSFDE82:
	.4byte	.LEFDE82-.LASFDE82
.LASFDE82:
	.4byte	.Lframe0
	.4byte	.LFB192
	.4byte	.LFE192-.LFB192
	.byte	0x4
	.4byte	.LCFI86-.LFB192
	.byte	0xe
	.uleb128 0x8
	.byte	0x4
	.4byte	.LCFI87-.LCFI86
	.byte	0xe
	.uleb128 0
	.align	2
.LEFDE82:
.LSFDE84:
	.4byte	.LEFDE84-.LASFDE84
.LASFDE84:
	.4byte	.Lframe0
	.4byte	.LFB193
	.4byte	.LFE193-.LFB193
	.byte	0x4
	.4byte	.LCFI88-.LFB193
	.byte	0xe
	.uleb128 0x10
	.byte	0x4
	.4byte	.LCFI89-.LCFI88
	.byte	0xe
	.uleb128 0
	.align	2
.LEFDE84:
.LSFDE86:
	.4byte	.LEFDE86-.LASFDE86
.LASFDE86:
	.4byte	.Lframe0
	.4byte	.LFB194
	.4byte	.LFE194-.LFB194
	.byte	0x4
	.4byte	.LCFI90-.LFB194
	.byte	0xe
	.uleb128 0x8
	.byte	0x4
	.4byte	.LCFI91-.LCFI90
	.byte	0xe
	.uleb128 0
	.align	2
.LEFDE86:
.LSFDE88:
	.4byte	.LEFDE88-.LASFDE88
.LASFDE88:
	.4byte	.Lframe0
	.4byte	.LFB195
	.4byte	.LFE195-.LFB195
	.byte	0x4
	.4byte	.LCFI92-.LFB195
	.byte	0xe
	.uleb128 0x10
	.byte	0x4
	.4byte	.LCFI93-.LCFI92
	.byte	0xe
	.uleb128 0
	.align	2
.LEFDE88:
.LSFDE90:
	.4byte	.LEFDE90-.LASFDE90
.LASFDE90:
	.4byte	.Lframe0
	.4byte	.LFB196
	.4byte	.LFE196-.LFB196
	.byte	0x4
	.4byte	.LCFI94-.LFB196
	.byte	0xe
	.uleb128 0x8
	.byte	0x4
	.4byte	.LCFI95-.LCFI94
	.byte	0xe
	.uleb128 0
	.align	2
.LEFDE90:
.LSFDE92:
	.4byte	.LEFDE92-.LASFDE92
.LASFDE92:
	.4byte	.Lframe0
	.4byte	.LFB200
	.4byte	.LFE200-.LFB200
	.byte	0x4
	.4byte	.LCFI96-.LFB200
	.byte	0xe
	.uleb128 0x4
	.byte	0x8e
	.uleb128 0x1
	.byte	0x4
	.4byte	.LCFI97-.LCFI96
	.byte	0xe
	.uleb128 0x10
	.byte	0x4
	.4byte	.LCFI98-.LCFI97
	.byte	0xe
	.uleb128 0x4
	.align	2
.LEFDE92:
.LSFDE94:
	.4byte	.LEFDE94-.LASFDE94
.LASFDE94:
	.4byte	.Lframe0
	.4byte	.LFB203
	.4byte	.LFE203-.LFB203
	.byte	0x4
	.4byte	.LCFI99-.LFB203
	.byte	0xe
	.uleb128 0x10
	.byte	0x4
	.4byte	.LCFI100-.LCFI99
	.byte	0xe
	.uleb128 0
	.align	2
.LEFDE94:
.LSFDE96:
	.4byte	.LEFDE96-.LASFDE96
.LASFDE96:
	.4byte	.Lframe0
	.4byte	.LFB205
	.4byte	.LFE205-.LFB205
	.byte	0x4
	.4byte	.LCFI101-.LFB205
	.byte	0xe
	.uleb128 0x8
	.byte	0x4
	.4byte	.LCFI102-.LCFI101
	.byte	0xe
	.uleb128 0
	.align	2
.LEFDE96:
.LSFDE98:
	.4byte	.LEFDE98-.LASFDE98
.LASFDE98:
	.4byte	.Lframe0
	.4byte	.LFB206
	.4byte	.LFE206-.LFB206
	.byte	0x4
	.4byte	.LCFI103-.LFB206
	.byte	0xe
	.uleb128 0x8
	.byte	0x4
	.4byte	.LCFI104-.LCFI103
	.byte	0xe
	.uleb128 0
	.align	2
.LEFDE98:
.LSFDE100:
	.4byte	.LEFDE100-.LASFDE100
.LASFDE100:
	.4byte	.Lframe0
	.4byte	.LFB209
	.4byte	.LFE209-.LFB209
	.byte	0x4
	.4byte	.LCFI105-.LFB209
	.byte	0xe
	.uleb128 0x4
	.byte	0x8e
	.uleb128 0x1
	.byte	0x4
	.4byte	.LCFI106-.LCFI105
	.byte	0xe
	.uleb128 0x18
	.byte	0x4
	.4byte	.LCFI107-.LCFI106
	.byte	0xe
	.uleb128 0x4
	.align	2
.LEFDE100:
.LSFDE102:
	.4byte	.LEFDE102-.LASFDE102
.LASFDE102:
	.4byte	.Lframe0
	.4byte	.LFB210
	.4byte	.LFE210-.LFB210
	.byte	0x4
	.4byte	.LCFI108-.LFB210
	.byte	0xe
	.uleb128 0x4
	.byte	0x8e
	.uleb128 0x1
	.byte	0x4
	.4byte	.LCFI109-.LCFI108
	.byte	0xe
	.uleb128 0x18
	.byte	0x4
	.4byte	.LCFI110-.LCFI109
	.byte	0xe
	.uleb128 0x4
	.align	2
.LEFDE102:
.LSFDE104:
	.4byte	.LEFDE104-.LASFDE104
.LASFDE104:
	.4byte	.Lframe0
	.4byte	.LFB211
	.4byte	.LFE211-.LFB211
	.byte	0x4
	.4byte	.LCFI111-.LFB211
	.byte	0xe
	.uleb128 0x4
	.byte	0x8e
	.uleb128 0x1
	.byte	0x4
	.4byte	.LCFI112-.LCFI111
	.byte	0xe
	.uleb128 0x18
	.byte	0x4
	.4byte	.LCFI113-.LCFI112
	.byte	0xe
	.uleb128 0x4
	.align	2
.LEFDE104:
.LSFDE106:
	.4byte	.LEFDE106-.LASFDE106
.LASFDE106:
	.4byte	.Lframe0
	.4byte	.LFB212
	.4byte	.LFE212-.LFB212
	.byte	0x4
	.4byte	.LCFI114-.LFB212
	.byte	0xe
	.uleb128 0x4
	.byte	0x8e
	.uleb128 0x1
	.byte	0x4
	.4byte	.LCFI115-.LCFI114
	.byte	0xe
	.uleb128 0x18
	.byte	0x4
	.4byte	.LCFI116-.LCFI115
	.byte	0xe
	.uleb128 0x4
	.align	2
.LEFDE106:
.LSFDE108:
	.4byte	.LEFDE108-.LASFDE108
.LASFDE108:
	.4byte	.Lframe0
	.4byte	.LFB218
	.4byte	.LFE218-.LFB218
	.byte	0x4
	.4byte	.LCFI117-.LFB218
	.byte	0xe
	.uleb128 0x4
	.byte	0x8e
	.uleb128 0x1
	.byte	0x4
	.4byte	.LCFI118-.LCFI117
	.byte	0xe
	.uleb128 0x18
	.byte	0x4
	.4byte	.LCFI119-.LCFI118
	.byte	0xe
	.uleb128 0x4
	.align	2
.LEFDE108:
.LSFDE110:
	.4byte	.LEFDE110-.LASFDE110
.LASFDE110:
	.4byte	.Lframe0
	.4byte	.LFB232
	.4byte	.LFE232-.LFB232
	.byte	0x4
	.4byte	.LCFI120-.LFB232
	.byte	0xe
	.uleb128 0x8
	.byte	0x4
	.4byte	.LCFI121-.LCFI120
	.byte	0xe
	.uleb128 0
	.align	2
.LEFDE110:
.LSFDE112:
	.4byte	.LEFDE112-.LASFDE112
.LASFDE112:
	.4byte	.Lframe0
	.4byte	.LFB238
	.4byte	.LFE238-.LFB238
	.byte	0x4
	.4byte	.LCFI122-.LFB238
	.byte	0xe
	.uleb128 0x4
	.byte	0x8e
	.uleb128 0x1
	.byte	0x4
	.4byte	.LCFI123-.LCFI122
	.byte	0xe
	.uleb128 0x10
	.byte	0x4
	.4byte	.LCFI124-.LCFI123
	.byte	0xe
	.uleb128 0x4
	.align	2
.LEFDE112:
.LSFDE114:
	.4byte	.LEFDE114-.LASFDE114
.LASFDE114:
	.4byte	.Lframe0
	.4byte	.LFB239
	.4byte	.LFE239-.LFB239
	.byte	0x4
	.4byte	.LCFI125-.LFB239
	.byte	0xe
	.uleb128 0x4
	.byte	0x8e
	.uleb128 0x1
	.byte	0x4
	.4byte	.LCFI126-.LCFI125
	.byte	0xe
	.uleb128 0x10
	.byte	0x4
	.4byte	.LCFI127-.LCFI126
	.byte	0xe
	.uleb128 0x4
	.align	2
.LEFDE114:
.LSFDE116:
	.4byte	.LEFDE116-.LASFDE116
.LASFDE116:
	.4byte	.Lframe0
	.4byte	.LFB240
	.4byte	.LFE240-.LFB240
	.byte	0x4
	.4byte	.LCFI128-.LFB240
	.byte	0xe
	.uleb128 0x4
	.byte	0x8e
	.uleb128 0x1
	.byte	0x4
	.4byte	.LCFI129-.LCFI128
	.byte	0xe
	.uleb128 0x10
	.byte	0x4
	.4byte	.LCFI130-.LCFI129
	.byte	0xe
	.uleb128 0x4
	.align	2
.LEFDE116:
.LSFDE118:
	.4byte	.LEFDE118-.LASFDE118
.LASFDE118:
	.4byte	.Lframe0
	.4byte	.LFB241
	.4byte	.LFE241-.LFB241
	.byte	0x4
	.4byte	.LCFI131-.LFB241
	.byte	0xe
	.uleb128 0x4
	.byte	0x8e
	.uleb128 0x1
	.byte	0x4
	.4byte	.LCFI132-.LCFI131
	.byte	0xe
	.uleb128 0x20
	.byte	0x4
	.4byte	.LCFI133-.LCFI132
	.byte	0xe
	.uleb128 0x4
	.align	2
.LEFDE118:
.LSFDE120:
	.4byte	.LEFDE120-.LASFDE120
.LASFDE120:
	.4byte	.Lframe0
	.4byte	.LFB242
	.4byte	.LFE242-.LFB242
	.byte	0x4
	.4byte	.LCFI134-.LFB242
	.byte	0xe
	.uleb128 0x4
	.byte	0x8e
	.uleb128 0x1
	.byte	0x4
	.4byte	.LCFI135-.LCFI134
	.byte	0xe
	.uleb128 0x10
	.byte	0x4
	.4byte	.LCFI136-.LCFI135
	.byte	0xe
	.uleb128 0x4
	.align	2
.LEFDE120:
.LSFDE122:
	.4byte	.LEFDE122-.LASFDE122
.LASFDE122:
	.4byte	.Lframe0
	.4byte	.LFB243
	.4byte	.LFE243-.LFB243
	.byte	0x4
	.4byte	.LCFI137-.LFB243
	.byte	0xe
	.uleb128 0x4
	.byte	0x8e
	.uleb128 0x1
	.byte	0x4
	.4byte	.LCFI138-.LCFI137
	.byte	0xe
	.uleb128 0x10
	.byte	0x4
	.4byte	.LCFI139-.LCFI138
	.byte	0xe
	.uleb128 0x4
	.align	2
.LEFDE122:
.LSFDE124:
	.4byte	.LEFDE124-.LASFDE124
.LASFDE124:
	.4byte	.Lframe0
	.4byte	.LFB244
	.4byte	.LFE244-.LFB244
	.byte	0x4
	.4byte	.LCFI140-.LFB244
	.byte	0xe
	.uleb128 0x4
	.byte	0x8e
	.uleb128 0x1
	.byte	0x4
	.4byte	.LCFI141-.LCFI140
	.byte	0xe
	.uleb128 0x20
	.byte	0x4
	.4byte	.LCFI142-.LCFI141
	.byte	0xe
	.uleb128 0x4
	.align	2
.LEFDE124:
.LSFDE126:
	.4byte	.LEFDE126-.LASFDE126
.LASFDE126:
	.4byte	.Lframe0
	.4byte	.LFB245
	.4byte	.LFE245-.LFB245
	.byte	0x4
	.4byte	.LCFI143-.LFB245
	.byte	0xe
	.uleb128 0x4
	.byte	0x8e
	.uleb128 0x1
	.byte	0x4
	.4byte	.LCFI144-.LCFI143
	.byte	0xe
	.uleb128 0x18
	.byte	0x4
	.4byte	.LCFI145-.LCFI144
	.byte	0xe
	.uleb128 0x4
	.align	2
.LEFDE126:
.LSFDE128:
	.4byte	.LEFDE128-.LASFDE128
.LASFDE128:
	.4byte	.Lframe0
	.4byte	.LFB246
	.4byte	.LFE246-.LFB246
	.byte	0x4
	.4byte	.LCFI146-.LFB246
	.byte	0xe
	.uleb128 0x4
	.byte	0x8e
	.uleb128 0x1
	.byte	0x4
	.4byte	.LCFI147-.LCFI146
	.byte	0xe
	.uleb128 0x18
	.byte	0x4
	.4byte	.LCFI148-.LCFI147
	.byte	0xe
	.uleb128 0x4
	.align	2
.LEFDE128:
.LSFDE130:
	.4byte	.LEFDE130-.LASFDE130
.LASFDE130:
	.4byte	.Lframe0
	.4byte	.LFB247
	.4byte	.LFE247-.LFB247
	.byte	0x4
	.4byte	.LCFI149-.LFB247
	.byte	0xe
	.uleb128 0x4
	.byte	0x8e
	.uleb128 0x1
	.byte	0x4
	.4byte	.LCFI150-.LCFI149
	.byte	0xe
	.uleb128 0x18
	.byte	0x4
	.4byte	.LCFI151-.LCFI150
	.byte	0xe
	.uleb128 0x4
	.align	2
.LEFDE130:
.LSFDE132:
	.4byte	.LEFDE132-.LASFDE132
.LASFDE132:
	.4byte	.Lframe0
	.4byte	.LFB248
	.4byte	.LFE248-.LFB248
	.byte	0x4
	.4byte	.LCFI152-.LFB248
	.byte	0xe
	.uleb128 0x4
	.byte	0x8e
	.uleb128 0x1
	.byte	0x4
	.4byte	.LCFI153-.LCFI152
	.byte	0xe
	.uleb128 0x20
	.byte	0x4
	.4byte	.LCFI154-.LCFI153
	.byte	0xe
	.uleb128 0x4
	.align	2
.LEFDE132:
.LSFDE134:
	.4byte	.LEFDE134-.LASFDE134
.LASFDE134:
	.4byte	.Lframe0
	.4byte	.LFB249
	.4byte	.LFE249-.LFB249
	.byte	0x4
	.4byte	.LCFI155-.LFB249
	.byte	0xe
	.uleb128 0x4
	.byte	0x8e
	.uleb128 0x1
	.byte	0x4
	.4byte	.LCFI156-.LCFI155
	.byte	0xe
	.uleb128 0x20
	.byte	0x4
	.4byte	.LCFI157-.LCFI156
	.byte	0xe
	.uleb128 0x4
	.align	2
.LEFDE134:
.LSFDE136:
	.4byte	.LEFDE136-.LASFDE136
.LASFDE136:
	.4byte	.Lframe0
	.4byte	.LFB250
	.4byte	.LFE250-.LFB250
	.byte	0x4
	.4byte	.LCFI158-.LFB250
	.byte	0xe
	.uleb128 0x8
	.byte	0x4
	.4byte	.LCFI159-.LCFI158
	.byte	0xe
	.uleb128 0
	.align	2
.LEFDE136:
.LSFDE138:
	.4byte	.LEFDE138-.LASFDE138
.LASFDE138:
	.4byte	.Lframe0
	.4byte	.LFB251
	.4byte	.LFE251-.LFB251
	.byte	0x4
	.4byte	.LCFI160-.LFB251
	.byte	0xe
	.uleb128 0x4
	.byte	0x8e
	.uleb128 0x1
	.byte	0x4
	.4byte	.LCFI161-.LCFI160
	.byte	0xe
	.uleb128 0x10
	.byte	0x4
	.4byte	.LCFI162-.LCFI161
	.byte	0xe
	.uleb128 0x4
	.align	2
.LEFDE138:
.LSFDE140:
	.4byte	.LEFDE140-.LASFDE140
.LASFDE140:
	.4byte	.Lframe0
	.4byte	.LFB252
	.4byte	.LFE252-.LFB252
	.byte	0x4
	.4byte	.LCFI163-.LFB252
	.byte	0xe
	.uleb128 0x8
	.byte	0x84
	.uleb128 0x2
	.byte	0x8e
	.uleb128 0x1
	.byte	0x4
	.4byte	.LCFI164-.LCFI163
	.byte	0xe
	.uleb128 0x10
	.byte	0x4
	.4byte	.LCFI165-.LCFI164
	.byte	0xe
	.uleb128 0x8
	.align	2
.LEFDE140:
.LSFDE142:
	.4byte	.LEFDE142-.LASFDE142
.LASFDE142:
	.4byte	.Lframe0
	.4byte	.LFB253
	.4byte	.LFE253-.LFB253
	.byte	0x4
	.4byte	.LCFI166-.LFB253
	.byte	0xe
	.uleb128 0x4
	.byte	0x8e
	.uleb128 0x1
	.byte	0x4
	.4byte	.LCFI167-.LCFI166
	.byte	0xe
	.uleb128 0x28
	.byte	0x4
	.4byte	.LCFI168-.LCFI167
	.byte	0xe
	.uleb128 0x4
	.align	2
.LEFDE142:
.LSFDE144:
	.4byte	.LEFDE144-.LASFDE144
.LASFDE144:
	.4byte	.Lframe0
	.4byte	.LFB254
	.4byte	.LFE254-.LFB254
	.byte	0x4
	.4byte	.LCFI169-.LFB254
	.byte	0xe
	.uleb128 0x4
	.byte	0x8e
	.uleb128 0x1
	.byte	0x4
	.4byte	.LCFI170-.LCFI169
	.byte	0xe
	.uleb128 0x20
	.byte	0x4
	.4byte	.LCFI171-.LCFI170
	.byte	0xe
	.uleb128 0x4
	.align	2
.LEFDE144:
.LSFDE146:
	.4byte	.LEFDE146-.LASFDE146
.LASFDE146:
	.4byte	.Lframe0
	.4byte	.LFB255
	.4byte	.LFE255-.LFB255
	.byte	0x4
	.4byte	.LCFI172-.LFB255
	.byte	0xe
	.uleb128 0x4
	.byte	0x8e
	.uleb128 0x1
	.byte	0x4
	.4byte	.LCFI173-.LCFI172
	.byte	0xe
	.uleb128 0x28
	.byte	0x4
	.4byte	.LCFI174-.LCFI173
	.byte	0xe
	.uleb128 0x4
	.align	2
.LEFDE146:
.LSFDE148:
	.4byte	.LEFDE148-.LASFDE148
.LASFDE148:
	.4byte	.Lframe0
	.4byte	.LFB256
	.4byte	.LFE256-.LFB256
	.byte	0x4
	.4byte	.LCFI175-.LFB256
	.byte	0xe
	.uleb128 0x4
	.byte	0x8e
	.uleb128 0x1
	.byte	0x4
	.4byte	.LCFI176-.LCFI175
	.byte	0xe
	.uleb128 0x10
	.byte	0x4
	.4byte	.LCFI177-.LCFI176
	.byte	0xe
	.uleb128 0x4
	.align	2
.LEFDE148:
.LSFDE150:
	.4byte	.LEFDE150-.LASFDE150
.LASFDE150:
	.4byte	.Lframe0
	.4byte	.LFB257
	.4byte	.LFE257-.LFB257
	.byte	0x4
	.4byte	.LCFI178-.LFB257
	.byte	0xe
	.uleb128 0x4
	.byte	0x8e
	.uleb128 0x1
	.byte	0x4
	.4byte	.LCFI179-.LCFI178
	.byte	0xe
	.uleb128 0x10
	.byte	0x4
	.4byte	.LCFI180-.LCFI179
	.byte	0xe
	.uleb128 0x4
	.align	2
.LEFDE150:
.LSFDE152:
	.4byte	.LEFDE152-.LASFDE152
.LASFDE152:
	.4byte	.Lframe0
	.4byte	.LFB258
	.4byte	.LFE258-.LFB258
	.byte	0x4
	.4byte	.LCFI181-.LFB258
	.byte	0xe
	.uleb128 0x4
	.byte	0x8e
	.uleb128 0x1
	.byte	0x4
	.4byte	.LCFI182-.LCFI181
	.byte	0xe
	.uleb128 0x10
	.byte	0x4
	.4byte	.LCFI183-.LCFI182
	.byte	0xe
	.uleb128 0x4
	.align	2
.LEFDE152:
.LSFDE154:
	.4byte	.LEFDE154-.LASFDE154
.LASFDE154:
	.4byte	.Lframe0
	.4byte	.LFB259
	.4byte	.LFE259-.LFB259
	.byte	0x4
	.4byte	.LCFI184-.LFB259
	.byte	0xe
	.uleb128 0x4
	.byte	0x8e
	.uleb128 0x1
	.byte	0x4
	.4byte	.LCFI185-.LCFI184
	.byte	0xe
	.uleb128 0x18
	.byte	0x4
	.4byte	.LCFI186-.LCFI185
	.byte	0xe
	.uleb128 0x4
	.align	2
.LEFDE154:
.LSFDE156:
	.4byte	.LEFDE156-.LASFDE156
.LASFDE156:
	.4byte	.Lframe0
	.4byte	.LFB260
	.4byte	.LFE260-.LFB260
	.byte	0x4
	.4byte	.LCFI187-.LFB260
	.byte	0xe
	.uleb128 0x4
	.byte	0x8e
	.uleb128 0x1
	.byte	0x4
	.4byte	.LCFI188-.LCFI187
	.byte	0xe
	.uleb128 0x28
	.byte	0x4
	.4byte	.LCFI189-.LCFI188
	.byte	0xe
	.uleb128 0x4
	.align	2
.LEFDE156:
.LSFDE158:
	.4byte	.LEFDE158-.LASFDE158
.LASFDE158:
	.4byte	.Lframe0
	.4byte	.LFB261
	.4byte	.LFE261-.LFB261
	.byte	0x4
	.4byte	.LCFI190-.LFB261
	.byte	0xe
	.uleb128 0x4
	.byte	0x8e
	.uleb128 0x1
	.byte	0x4
	.4byte	.LCFI191-.LCFI190
	.byte	0xe
	.uleb128 0x20
	.byte	0x4
	.4byte	.LCFI192-.LCFI191
	.byte	0xe
	.uleb128 0x4
	.align	2
.LEFDE158:
.LSFDE160:
	.4byte	.LEFDE160-.LASFDE160
.LASFDE160:
	.4byte	.Lframe0
	.4byte	.LFB262
	.4byte	.LFE262-.LFB262
	.byte	0x4
	.4byte	.LCFI193-.LFB262
	.byte	0xe
	.uleb128 0x4
	.byte	0x8e
	.uleb128 0x1
	.byte	0x4
	.4byte	.LCFI194-.LCFI193
	.byte	0xe
	.uleb128 0x18
	.byte	0x4
	.4byte	.LCFI195-.LCFI194
	.byte	0xe
	.uleb128 0x4
	.align	2
.LEFDE160:
.LSFDE162:
	.4byte	.LEFDE162-.LASFDE162
.LASFDE162:
	.4byte	.Lframe0
	.4byte	.LFB263
	.4byte	.LFE263-.LFB263
	.byte	0x4
	.4byte	.LCFI196-.LFB263
	.byte	0xe
	.uleb128 0x4
	.byte	0x8e
	.uleb128 0x1
	.byte	0x4
	.4byte	.LCFI197-.LCFI196
	.byte	0xe
	.uleb128 0x10
	.byte	0x4
	.4byte	.LCFI198-.LCFI197
	.byte	0xe
	.uleb128 0x4
	.align	2
.LEFDE162:
.LSFDE164:
	.4byte	.LEFDE164-.LASFDE164
.LASFDE164:
	.4byte	.Lframe0
	.4byte	.LFB264
	.4byte	.LFE264-.LFB264
	.byte	0x4
	.4byte	.LCFI199-.LFB264
	.byte	0xe
	.uleb128 0x4
	.byte	0x8e
	.uleb128 0x1
	.byte	0x4
	.4byte	.LCFI200-.LCFI199
	.byte	0xe
	.uleb128 0x28
	.byte	0x4
	.4byte	.LCFI201-.LCFI200
	.byte	0xe
	.uleb128 0x4
	.align	2
.LEFDE164:
.LSFDE166:
	.4byte	.LEFDE166-.LASFDE166
.LASFDE166:
	.4byte	.Lframe0
	.4byte	.LFB265
	.4byte	.LFE265-.LFB265
	.byte	0x4
	.4byte	.LCFI202-.LFB265
	.byte	0xe
	.uleb128 0x4
	.byte	0x8e
	.uleb128 0x1
	.byte	0x4
	.4byte	.LCFI203-.LCFI202
	.byte	0xe
	.uleb128 0x28
	.byte	0x4
	.4byte	.LCFI204-.LCFI203
	.byte	0xe
	.uleb128 0x4
	.align	2
.LEFDE166:
.LSFDE168:
	.4byte	.LEFDE168-.LASFDE168
.LASFDE168:
	.4byte	.Lframe0
	.4byte	.LFB266
	.4byte	.LFE266-.LFB266
	.byte	0x4
	.4byte	.LCFI205-.LFB266
	.byte	0xe
	.uleb128 0x8
	.byte	0x83
	.uleb128 0x2
	.byte	0x8e
	.uleb128 0x1
	.align	2
.LEFDE168:
	.text
.Letext0:
	.file 8 "C:/Program Files/SEGGER/SEGGER Embedded Studio for ARM 4.12/include/stdint.h"
	.file 9 "C:/Program Files/SEGGER/SEGGER Embedded Studio for ARM 4.12/include/__crossworks.h"
	.file 10 "../../../nRF5_SDK_14.2.0/components/libraries/util/sdk_errors.h"
	.file 11 "C:/Users/paulr/AppData/Local/SEGGER/SEGGER Embedded Studio/v3/packages/nRF/CMSIS/Device/Include/nrf52.h"
	.file 12 "C:/Users/paulr/AppData/Local/SEGGER/SEGGER Embedded Studio/v3/packages/nRF/CMSIS/Device/Include/system_nrf52.h"
	.file 13 "../../../nRF5_SDK_14.2.0/components/libraries/util/app_util.h"
	.file 14 "C:\\Users\\paulr\\OneDrive\\Documents\\DARPA\\darpasubt\\darpasubt\\firmware\\dwm1001_dev_source_code\\nRF5_SDK_14.2.0\\components\\drivers_nrf\\uart\\nrf_drv_uart.h"
	.file 15 "C:/Program Files/SEGGER/SEGGER Embedded Studio for ARM 4.12/include/stdio.h"
	.file 16 "../../../nRF5_SDK_14.2.0/components/libraries/experimental_log/src/nrf_log_internal.h"